---
triple:          'arm64-apple-darwin'
binary-path:     a
relocations:
  - { offset: 0x18020, size: 0x8, addend: 0x0, symName: __ZN3fmt3v106detail10basic_dataIvE35fractional_part_rounding_thresholdsE, symObjAddr: 0x24450, symBinAddr: 0x10002BBB0, symSize: 0x0 }
  - { offset: 0x184E1, size: 0x8, addend: 0x0, symName: __ZN15fsm_definitions7fmt_lib19fmt_lib_descriptionB5cxx11E, symObjAddr: 0x25F10, symBinAddr: 0x100040000, symSize: 0x0 }
  - { offset: 0x184F1, size: 0x8, addend: 0x0, symName: __ZN15fsm_definitions7fmt_lib14fmt_lib_sourceB5cxx11E, symObjAddr: 0x25F30, symBinAddr: 0x100040020, symSize: 0x0 }
  - { offset: 0x18683, size: 0x8, addend: 0x0, symName: __ZN15fsm_definitions8platform16fsm_core_versionB5cxx11E, symObjAddr: 0x25F60, symBinAddr: 0x100040050, symSize: 0x0 }
  - { offset: 0x18BF8, size: 0x8, addend: 0x0, symName: __ZN3fmt3v1012format_facetISt6localeE2idE, symObjAddr: 0x25F80, symBinAddr: 0x100040070, symSize: 0x0 }
  - { offset: 0x18D37, size: 0x8, addend: 0x0, symName: __ZNSt11__copy_moveILb0ELb0ESt26random_access_iterator_tagE12__assign_oneIiiEEvPT_PT0_, symObjAddr: 0x241C4, symBinAddr: 0x100028024, symSize: 0x28 }
  - { offset: 0x18D84, size: 0x8, addend: 0x0, symName: __ZNSt11__copy_moveILb0ELb0ESt26random_access_iterator_tagE12__assign_oneIccEEvPT_PT0_, symObjAddr: 0x2419C, symBinAddr: 0x100027FFC, symSize: 0x28 }
  - { offset: 0x18DD1, size: 0x8, addend: 0x0, symName: __ZNSt11__copy_moveILb0ELb0ESt26random_access_iterator_tagE12__assign_oneIjjEEvPT_PT0_, symObjAddr: 0x24174, symBinAddr: 0x100027FD4, symSize: 0x28 }
  - { offset: 0x18E1E, size: 0x8, addend: 0x0, symName: __ZNSt11__copy_moveILb0ELb1ESt26random_access_iterator_tagE8__copy_mIiiEEPT0_PT_S6_S4_, symObjAddr: 0x240E4, symBinAddr: 0x100027F44, symSize: 0x90 }
  - { offset: 0x18E8D, size: 0x8, addend: 0x0, symName: __ZNSt11__copy_moveILb0ELb1ESt26random_access_iterator_tagE8__copy_mIccEEPT0_PT_S6_S4_, symObjAddr: 0x24060, symBinAddr: 0x100027EC0, symSize: 0x84 }
  - { offset: 0x18EFC, size: 0x8, addend: 0x0, symName: __ZNSt11__copy_moveILb0ELb1ESt26random_access_iterator_tagE8__copy_mIjjEEPT0_PT_S6_S4_, symObjAddr: 0x23FD0, symBinAddr: 0x100027E30, symSize: 0x90 }
  - { offset: 0x18F6B, size: 0x8, addend: 0x0, symName: __ZSt14__copy_move_a2ILb0EPiS0_ET1_T0_S2_S1_, symObjAddr: 0x23FA4, symBinAddr: 0x100027E04, symSize: 0x2C }
  - { offset: 0x18FD3, size: 0x8, addend: 0x0, symName: __ZSt14__copy_move_a2ILb0EPcS0_ET1_T0_S2_S1_, symObjAddr: 0x23F78, symBinAddr: 0x100027DD8, symSize: 0x2C }
  - { offset: 0x1903B, size: 0x8, addend: 0x0, symName: __ZSt14__copy_move_a2ILb0EPjS0_ET1_T0_S2_S1_, symObjAddr: 0x23F4C, symBinAddr: 0x100027DAC, symSize: 0x2C }
  - { offset: 0x190A3, size: 0x8, addend: 0x0, symName: __ZSt12__niter_wrapIPiET_RKS1_S1_, symObjAddr: 0x23F34, symBinAddr: 0x100027D94, symSize: 0x18 }
  - { offset: 0x190DF, size: 0x8, addend: 0x0, symName: __ZSt14__copy_move_a1ILb0EPiS0_ET1_T0_S2_S1_, symObjAddr: 0x23F08, symBinAddr: 0x100027D68, symSize: 0x2C }
  - { offset: 0x19147, size: 0x8, addend: 0x0, symName: __ZSt12__niter_baseIPiET_S1_, symObjAddr: 0x23EF4, symBinAddr: 0x100027D54, symSize: 0x14 }
  - { offset: 0x1917A, size: 0x8, addend: 0x0, symName: __ZSt14__copy_move_a1ILb0EPcS0_ET1_T0_S2_S1_, symObjAddr: 0x23EC8, symBinAddr: 0x100027D28, symSize: 0x2C }
  - { offset: 0x191E2, size: 0x8, addend: 0x0, symName: __ZSt12__niter_wrapIPjET_RKS1_S1_, symObjAddr: 0x23EB0, symBinAddr: 0x100027D10, symSize: 0x18 }
  - { offset: 0x1921E, size: 0x8, addend: 0x0, symName: __ZSt14__copy_move_a1ILb0EPjS0_ET1_T0_S2_S1_, symObjAddr: 0x23E84, symBinAddr: 0x100027CE4, symSize: 0x2C }
  - { offset: 0x19286, size: 0x8, addend: 0x0, symName: __ZSt12__niter_baseIPjET_S1_, symObjAddr: 0x23E70, symBinAddr: 0x100027CD0, symSize: 0x14 }
  - { offset: 0x192B9, size: 0x8, addend: 0x0, symName: __ZSt13__copy_move_aILb0EPiS0_ET1_T0_S2_S1_, symObjAddr: 0x23E10, symBinAddr: 0x100027C70, symSize: 0x60 }
  - { offset: 0x19321, size: 0x8, addend: 0x0, symName: __ZSt12__miter_baseIPiET_S1_, symObjAddr: 0x23DFC, symBinAddr: 0x100027C5C, symSize: 0x14 }
  - { offset: 0x19354, size: 0x8, addend: 0x0, symName: __ZSt13__copy_move_aILb0EPcS0_ET1_T0_S2_S1_, symObjAddr: 0x23D9C, symBinAddr: 0x100027BFC, symSize: 0x60 }
  - { offset: 0x193BC, size: 0x8, addend: 0x0, symName: __ZSt12__miter_baseIPcET_S1_, symObjAddr: 0x23D88, symBinAddr: 0x100027BE8, symSize: 0x14 }
  - { offset: 0x193EF, size: 0x8, addend: 0x0, symName: __ZSt13__copy_move_aILb0EPjS0_ET1_T0_S2_S1_, symObjAddr: 0x23D28, symBinAddr: 0x100027B88, symSize: 0x60 }
  - { offset: 0x19457, size: 0x8, addend: 0x0, symName: __ZSt12__miter_baseIPjET_S1_, symObjAddr: 0x23D14, symBinAddr: 0x100027B74, symSize: 0x14 }
  - { offset: 0x1948A, size: 0x8, addend: 0x0, symName: __ZSt4copyIPiS0_ET0_T_S2_S1_, symObjAddr: 0x23CCC, symBinAddr: 0x100027B2C, symSize: 0x48 }
  - { offset: 0x194E8, size: 0x8, addend: 0x0, symName: __ZSt4copyIPcS0_ET0_T_S2_S1_, symObjAddr: 0x23C84, symBinAddr: 0x100027AE4, symSize: 0x48 }
  - { offset: 0x19546, size: 0x8, addend: 0x0, symName: __ZSt4copyIPjS0_ET0_T_S2_S1_, symObjAddr: 0x23C3C, symBinAddr: 0x100027A9C, symSize: 0x48 }
  - { offset: 0x195A4, size: 0x8, addend: 0x0, symName: __ZNSt20__uninitialized_copyILb1EE13__uninit_copyIPiS2_EET0_T_S4_S3_, symObjAddr: 0x23C10, symBinAddr: 0x100027A70, symSize: 0x2C }
  - { offset: 0x195FF, size: 0x8, addend: 0x0, symName: __ZNSt20__uninitialized_copyILb1EE13__uninit_copyIPcS2_EET0_T_S4_S3_, symObjAddr: 0x23BE4, symBinAddr: 0x100027A44, symSize: 0x2C }
  - { offset: 0x1965A, size: 0x8, addend: 0x0, symName: __ZNSt20__uninitialized_copyILb1EE13__uninit_copyIPjS2_EET0_T_S4_S3_, symObjAddr: 0x23BB8, symBinAddr: 0x100027A18, symSize: 0x2C }
  - { offset: 0x196B5, size: 0x8, addend: 0x0, symName: __ZSt18uninitialized_copyIPiS0_ET0_T_S2_S1_, symObjAddr: 0x23B7C, symBinAddr: 0x1000279DC, symSize: 0x3C }
  - { offset: 0x19730, size: 0x8, addend: 0x0, symName: __ZSt18uninitialized_copyIPcS0_ET0_T_S2_S1_, symObjAddr: 0x23B40, symBinAddr: 0x1000279A0, symSize: 0x3C }
  - { offset: 0x197AB, size: 0x8, addend: 0x0, symName: __ZSt18uninitialized_copyIPjS0_ET0_T_S2_S1_, symObjAddr: 0x23B04, symBinAddr: 0x100027964, symSize: 0x3C }
  - { offset: 0x19826, size: 0x8, addend: 0x0, symName: __ZSt22__uninitialized_copy_nIPimS0_ET1_T_T0_S1_St26random_access_iterator_tag, symObjAddr: 0x23AC4, symBinAddr: 0x100027924, symSize: 0x40 }
  - { offset: 0x198B0, size: 0x8, addend: 0x0, symName: __ZNSt15__new_allocatorIiE8allocateEmPKv, symObjAddr: 0x23A48, symBinAddr: 0x1000278A8, symSize: 0x7C }
  - { offset: 0x1994E, size: 0x8, addend: 0x0, symName: __ZSt22__uninitialized_copy_nIPcmS0_ET1_T_T0_S1_St26random_access_iterator_tag, symObjAddr: 0x23A0C, symBinAddr: 0x10002786C, symSize: 0x3C }
  - { offset: 0x199BE, size: 0x8, addend: 0x0, symName: __ZSt22__uninitialized_copy_nIPjmS0_ET1_T_T0_S1_St26random_access_iterator_tag, symObjAddr: 0x239CC, symBinAddr: 0x10002782C, symSize: 0x40 }
  - { offset: 0x19A32, size: 0x8, addend: 0x0, symName: __ZNSt15__new_allocatorIjE8allocateEmPKv, symObjAddr: 0x23950, symBinAddr: 0x1000277B0, symSize: 0x7C }
  - { offset: 0x19AD0, size: 0x8, addend: 0x0, symName: __ZSt20uninitialized_copy_nIPimS0_ET1_T_T0_S1_, symObjAddr: 0x23920, symBinAddr: 0x100027780, symSize: 0x30 }
  - { offset: 0x19B92, size: 0x8, addend: 0x0, symName: __ZSt20uninitialized_copy_nIPcmS0_ET1_T_T0_S1_, symObjAddr: 0x238F0, symBinAddr: 0x100027750, symSize: 0x30 }
  - { offset: 0x19C1A, size: 0x8, addend: 0x0, symName: __ZSt20uninitialized_copy_nIPjmS0_ET1_T_T0_S1_, symObjAddr: 0x238C0, symBinAddr: 0x100027720, symSize: 0x30 }
  - { offset: 0x19CE0, size: 0x8, addend: 0x0, symName: __ZN3fmt3v1019basic_memory_bufferIiLm500ESaIiEE4growEm, symObjAddr: 0x23728, symBinAddr: 0x100027588, symSize: 0x198 }
  - { offset: 0x19E31, size: 0x8, addend: 0x0, symName: __ZN3fmt3v1019basic_memory_bufferIcLm500ESaIcEE4growEm, symObjAddr: 0x23590, symBinAddr: 0x1000273F0, symSize: 0x198 }
  - { offset: 0x19F82, size: 0x8, addend: 0x0, symName: __ZN3fmt3v1019basic_memory_bufferIjLm32ESaIjEE4growEm, symObjAddr: 0x233F8, symBinAddr: 0x100027258, symSize: 0x198 }
  - { offset: 0x1A0CF, size: 0x8, addend: 0x0, symName: __ZNSt11__copy_moveILb0ELb0ESt26random_access_iterator_tagE12__assign_oneIcKcEEvPT_PT0_, symObjAddr: 0x233D0, symBinAddr: 0x100027230, symSize: 0x28 }
  - { offset: 0x1A11C, size: 0x8, addend: 0x0, symName: __ZNSt11__copy_moveILb0ELb1ESt26random_access_iterator_tagE8__copy_mIKccEEPT0_PT_S7_S5_, symObjAddr: 0x2334C, symBinAddr: 0x1000271AC, symSize: 0x84 }
  - { offset: 0x1A18B, size: 0x8, addend: 0x0, symName: __ZSt14__copy_move_a2ILb0EPKcPcET1_T0_S4_S3_, symObjAddr: 0x23320, symBinAddr: 0x100027180, symSize: 0x2C }
  - { offset: 0x1A1F3, size: 0x8, addend: 0x0, symName: __ZSt12__niter_wrapIPcET_RKS1_S1_, symObjAddr: 0x23308, symBinAddr: 0x100027168, symSize: 0x18 }
  - { offset: 0x1A22F, size: 0x8, addend: 0x0, symName: __ZSt14__copy_move_a1ILb0EPKcPcET1_T0_S4_S3_, symObjAddr: 0x232DC, symBinAddr: 0x10002713C, symSize: 0x2C }
  - { offset: 0x1A297, size: 0x8, addend: 0x0, symName: __ZSt12__niter_baseIPcET_S1_, symObjAddr: 0x232C8, symBinAddr: 0x100027128, symSize: 0x14 }
  - { offset: 0x1A2CA, size: 0x8, addend: 0x0, symName: __ZSt12__niter_baseIPKcET_S2_, symObjAddr: 0x232B4, symBinAddr: 0x100027114, symSize: 0x14 }
  - { offset: 0x1A2FD, size: 0x8, addend: 0x0, symName: __ZSt13__copy_move_aILb0EPKcPcET1_T0_S4_S3_, symObjAddr: 0x23254, symBinAddr: 0x1000270B4, symSize: 0x60 }
  - { offset: 0x1A365, size: 0x8, addend: 0x0, symName: __ZSt12__miter_baseIPKcET_S2_, symObjAddr: 0x23240, symBinAddr: 0x1000270A0, symSize: 0x14 }
  - { offset: 0x1A398, size: 0x8, addend: 0x0, symName: __ZSt4copyIPKcPcET0_T_S4_S3_, symObjAddr: 0x231F8, symBinAddr: 0x100027058, symSize: 0x48 }
  - { offset: 0x1A3F6, size: 0x8, addend: 0x0, symName: __ZN3fmt3v106detail8copy_strIcPcNS1_17counting_iteratorEEET1_T0_S6_S5_, symObjAddr: 0x23198, symBinAddr: 0x100026FF8, symSize: 0x60 }
  - { offset: 0x1A46C, size: 0x8, addend: 0x0, symName: __ZN3fmt3v106detail12write_paddedILNS0_5align4typeE2ENS0_8appenderEcRZNS1_14do_write_floatIS5_NS1_14big_decimal_fpEcNS1_14digit_groupingIcEEEET_SA_RKT0_RKNS0_12format_specsIT1_EENS1_11float_specsENS1_10locale_refEEUlS5_E2_EESB_SB_SI_mmOT2_, symObjAddr: 0x23054, symBinAddr: 0x100026EB4, symSize: 0x144 }
  - { offset: 0x1A56E, size: 0x8, addend: 0x0, symName: __ZN3fmt3v106detail12write_paddedILNS0_5align4typeE2ENS0_8appenderEcRZNS1_14do_write_floatIS5_NS1_14big_decimal_fpEcNS1_14digit_groupingIcEEEET_SA_RKT0_RKNS0_12format_specsIT1_EENS1_11float_specsENS1_10locale_refEEUlS5_E1_EESB_SB_SI_mmOT2_, symObjAddr: 0x22F10, symBinAddr: 0x100026D70, symSize: 0x144 }
  - { offset: 0x1A676, size: 0x8, addend: 0x0, symName: __ZN3fmt3v106detail12write_paddedILNS0_5align4typeE2ENS0_8appenderEcRZNS1_14do_write_floatIS5_NS1_14big_decimal_fpEcNS1_14digit_groupingIcEEEET_SA_RKT0_RKNS0_12format_specsIT1_EENS1_11float_specsENS1_10locale_refEEUlS5_E0_EESB_SB_SI_mmOT2_, symObjAddr: 0x22DCC, symBinAddr: 0x100026C2C, symSize: 0x144 }
  - { offset: 0x1A772, size: 0x8, addend: 0x0, symName: __ZN3fmt3v106detail12write_paddedILNS0_5align4typeE2ENS0_8appenderEcRZNS1_14do_write_floatIS5_NS1_14big_decimal_fpEcNS1_14digit_groupingIcEEEET_SA_RKT0_RKNS0_12format_specsIT1_EENS1_11float_specsENS1_10locale_refEEUlS5_E_EESB_SB_SI_mmOT2_, symObjAddr: 0x22C88, symBinAddr: 0x100026AE8, symSize: 0x144 }
  - { offset: 0x1A86E, size: 0x8, addend: 0x0, symName: __ZN3fmt3v106detail12write_paddedILNS0_5align4typeE2ENS0_8appenderEcRZNS1_14do_write_floatIS5_NS1_14big_decimal_fpEcNS1_23fallback_digit_groupingIcEEEET_SA_RKT0_RKNS0_12format_specsIT1_EENS1_11float_specsENS1_10locale_refEEUlS5_E2_EESB_SB_SI_mmOT2_, symObjAddr: 0x22B44, symBinAddr: 0x1000269A4, symSize: 0x144 }
  - { offset: 0x1A970, size: 0x8, addend: 0x0, symName: __ZN3fmt3v106detail12write_paddedILNS0_5align4typeE2ENS0_8appenderEcRZNS1_14do_write_floatIS5_NS1_14big_decimal_fpEcNS1_23fallback_digit_groupingIcEEEET_SA_RKT0_RKNS0_12format_specsIT1_EENS1_11float_specsENS1_10locale_refEEUlS5_E1_EESB_SB_SI_mmOT2_, symObjAddr: 0x22A00, symBinAddr: 0x100026860, symSize: 0x144 }
  - { offset: 0x1AA6C, size: 0x8, addend: 0x0, symName: __ZN3fmt3v106detail12write_paddedILNS0_5align4typeE2ENS0_8appenderEcRZNS1_14do_write_floatIS5_NS1_14big_decimal_fpEcNS1_23fallback_digit_groupingIcEEEET_SA_RKT0_RKNS0_12format_specsIT1_EENS1_11float_specsENS1_10locale_refEEUlS5_E0_EESB_SB_SI_mmOT2_, symObjAddr: 0x228BC, symBinAddr: 0x10002671C, symSize: 0x144 }
  - { offset: 0x1AB68, size: 0x8, addend: 0x0, symName: __ZN3fmt3v106detail12write_paddedILNS0_5align4typeE2ENS0_8appenderEcRZNS1_14do_write_floatIS5_NS1_14big_decimal_fpEcNS1_23fallback_digit_groupingIcEEEET_SA_RKT0_RKNS0_12format_specsIT1_EENS1_11float_specsENS1_10locale_refEEUlS5_E_EESB_SB_SI_mmOT2_, symObjAddr: 0x22778, symBinAddr: 0x1000265D8, symSize: 0x144 }
  - { offset: 0x1AC64, size: 0x8, addend: 0x0, symName: __ZN3fmt3v106detail12write_paddedILNS0_5align4typeE2ENS0_8appenderEcRZNS1_9write_intIS5_cZNS1_9write_intIcS5_oEET0_S8_NS1_13write_int_argIT1_EERKNS0_12format_specsIT_EENS1_10locale_refEEUlS5_E2_EESD_SD_ijRKNSC_IS8_EESA_EUlS5_E_EES8_S8_RKNSC_ISA_EEmmOT2_, symObjAddr: 0x22634, symBinAddr: 0x100026494, symSize: 0x144 }
  - { offset: 0x1AD60, size: 0x8, addend: 0x0, symName: __ZN3fmt3v106detail12write_paddedILNS0_5align4typeE2ENS0_8appenderEcRZNS1_9write_intIS5_cZNS1_9write_intIcS5_oEET0_S8_NS1_13write_int_argIT1_EERKNS0_12format_specsIT_EENS1_10locale_refEEUlS5_E1_EESD_SD_ijRKNSC_IS8_EESA_EUlS5_E_EES8_S8_RKNSC_ISA_EEmmOT2_, symObjAddr: 0x224F0, symBinAddr: 0x100026350, symSize: 0x144 }
  - { offset: 0x1AE5C, size: 0x8, addend: 0x0, symName: __ZN3fmt3v106detail12write_paddedILNS0_5align4typeE2ENS0_8appenderEcRZNS1_9write_intIS5_cZNS1_9write_intIcS5_oEET0_S8_NS1_13write_int_argIT1_EERKNS0_12format_specsIT_EENS1_10locale_refEEUlS5_E0_EESD_SD_ijRKNSC_IS8_EESA_EUlS5_E_EES8_S8_RKNSC_ISA_EEmmOT2_, symObjAddr: 0x223AC, symBinAddr: 0x10002620C, symSize: 0x144 }
  - { offset: 0x1AF58, size: 0x8, addend: 0x0, symName: __ZN3fmt3v106detail12write_paddedILNS0_5align4typeE2ENS0_8appenderEcRZNS1_9write_intIS5_cZNS1_9write_intIcS5_oEET0_S8_NS1_13write_int_argIT1_EERKNS0_12format_specsIT_EENS1_10locale_refEEUlS5_E_EESD_SD_ijRKNSC_IS8_EESA_EUlS5_E_EES8_S8_RKNSC_ISA_EEmmOT2_, symObjAddr: 0x22268, symBinAddr: 0x1000260C8, symSize: 0x144 }
  - { offset: 0x1B054, size: 0x8, addend: 0x0, symName: __ZN3fmt3v106detail12write_paddedILNS0_5align4typeE2ENS0_8appenderEcRZNS1_9write_intIS5_cZNS1_9write_intIcS5_yEET0_S8_NS1_13write_int_argIT1_EERKNS0_12format_specsIT_EENS1_10locale_refEEUlS5_E2_EESD_SD_ijRKNSC_IS8_EESA_EUlS5_E_EES8_S8_RKNSC_ISA_EEmmOT2_, symObjAddr: 0x22124, symBinAddr: 0x100025F84, symSize: 0x144 }
  - { offset: 0x1B150, size: 0x8, addend: 0x0, symName: __ZN3fmt3v106detail12write_paddedILNS0_5align4typeE2ENS0_8appenderEcRZNS1_9write_intIS5_cZNS1_9write_intIcS5_yEET0_S8_NS1_13write_int_argIT1_EERKNS0_12format_specsIT_EENS1_10locale_refEEUlS5_E1_EESD_SD_ijRKNSC_IS8_EESA_EUlS5_E_EES8_S8_RKNSC_ISA_EEmmOT2_, symObjAddr: 0x21FE0, symBinAddr: 0x100025E40, symSize: 0x144 }
  - { offset: 0x1B24C, size: 0x8, addend: 0x0, symName: __ZN3fmt3v106detail12write_paddedILNS0_5align4typeE2ENS0_8appenderEcRZNS1_9write_intIS5_cZNS1_9write_intIcS5_yEET0_S8_NS1_13write_int_argIT1_EERKNS0_12format_specsIT_EENS1_10locale_refEEUlS5_E0_EESD_SD_ijRKNSC_IS8_EESA_EUlS5_E_EES8_S8_RKNSC_ISA_EEmmOT2_, symObjAddr: 0x21E9C, symBinAddr: 0x100025CFC, symSize: 0x144 }
  - { offset: 0x1B348, size: 0x8, addend: 0x0, symName: __ZN3fmt3v106detail12write_paddedILNS0_5align4typeE2ENS0_8appenderEcRZNS1_9write_intIS5_cZNS1_9write_intIcS5_yEET0_S8_NS1_13write_int_argIT1_EERKNS0_12format_specsIT_EENS1_10locale_refEEUlS5_E_EESD_SD_ijRKNSC_IS8_EESA_EUlS5_E_EES8_S8_RKNSC_ISA_EEmmOT2_, symObjAddr: 0x21D58, symBinAddr: 0x100025BB8, symSize: 0x144 }
  - { offset: 0x1B444, size: 0x8, addend: 0x0, symName: __ZN3fmt3v106detail12write_paddedILNS0_5align4typeE2ENS0_8appenderEcRZNS1_9write_intIS5_cZNS1_9write_intIcS5_jEET0_S8_NS1_13write_int_argIT1_EERKNS0_12format_specsIT_EENS1_10locale_refEEUlS5_E2_EESD_SD_ijRKNSC_IS8_EESA_EUlS5_E_EES8_S8_RKNSC_ISA_EEmmOT2_, symObjAddr: 0x21C14, symBinAddr: 0x100025A74, symSize: 0x144 }
  - { offset: 0x1B540, size: 0x8, addend: 0x0, symName: __ZN3fmt3v106detail12write_paddedILNS0_5align4typeE2ENS0_8appenderEcRZNS1_9write_intIS5_cZNS1_9write_intIcS5_jEET0_S8_NS1_13write_int_argIT1_EERKNS0_12format_specsIT_EENS1_10locale_refEEUlS5_E1_EESD_SD_ijRKNSC_IS8_EESA_EUlS5_E_EES8_S8_RKNSC_ISA_EEmmOT2_, symObjAddr: 0x21AD0, symBinAddr: 0x100025930, symSize: 0x144 }
  - { offset: 0x1B63C, size: 0x8, addend: 0x0, symName: __ZN3fmt3v106detail12write_paddedILNS0_5align4typeE2ENS0_8appenderEcRZNS1_9write_intIS5_cZNS1_9write_intIcS5_jEET0_S8_NS1_13write_int_argIT1_EERKNS0_12format_specsIT_EENS1_10locale_refEEUlS5_E0_EESD_SD_ijRKNSC_IS8_EESA_EUlS5_E_EES8_S8_RKNSC_ISA_EEmmOT2_, symObjAddr: 0x2198C, symBinAddr: 0x1000257EC, symSize: 0x144 }
  - { offset: 0x1B738, size: 0x8, addend: 0x0, symName: __ZN3fmt3v106detail12write_paddedILNS0_5align4typeE2ENS0_8appenderEcRZNS1_9write_intIS5_cZNS1_9write_intIcS5_jEET0_S8_NS1_13write_int_argIT1_EERKNS0_12format_specsIT_EENS1_10locale_refEEUlS5_E_EESD_SD_ijRKNSC_IS8_EESA_EUlS5_E_EES8_S8_RKNSC_ISA_EEmmOT2_, symObjAddr: 0x21848, symBinAddr: 0x1000256A8, symSize: 0x144 }
  - { offset: 0x1B834, size: 0x8, addend: 0x0, symName: __ZNSt20__uninitialized_copyILb1EE13__uninit_copyIPKcPcEET0_T_S6_S5_, symObjAddr: 0x2181C, symBinAddr: 0x10002567C, symSize: 0x2C }
  - { offset: 0x1B88F, size: 0x8, addend: 0x0, symName: __ZN3fmt3v106detail18thousands_sep_implIcEENS1_20thousands_sep_resultIT_EENS1_10locale_refE, symObjAddr: 0x21744, symBinAddr: 0x1000255A4, symSize: 0xD8 }
  - { offset: 0x1B8FE, size: 0x8, addend: 0x0, symName: __ZN3fmt3v106detail15write_codepointILm8EcNS1_17counting_iteratorEEET1_S4_cj, symObjAddr: 0x2168C, symBinAddr: 0x1000254EC, symSize: 0xB8 }
  - { offset: 0x1B97A, size: 0x8, addend: 0x0, symName: __ZN3fmt3v106detail15write_codepointILm4EcNS1_17counting_iteratorEEET1_S4_cj, symObjAddr: 0x215D4, symBinAddr: 0x100025434, symSize: 0xB8 }
  - { offset: 0x1B9F3, size: 0x8, addend: 0x0, symName: __ZN3fmt3v106detail15write_codepointILm2EcNS1_17counting_iteratorEEET1_S4_cj, symObjAddr: 0x2151C, symBinAddr: 0x10002537C, symSize: 0xB8 }
  - { offset: 0x1BAC0, size: 0x8, addend: 0x0, symName: __ZN3fmt3v106detail12write_paddedILNS0_5align4typeE2ENS0_8appenderEcZNS1_14do_write_floatIS5_NS1_14big_decimal_fpEcNS1_14digit_groupingIcEEEET_SA_RKT0_RKNS0_12format_specsIT1_EENS1_11float_specsENS1_10locale_refEEUlS5_E2_EESB_SB_SI_mOT2_, symObjAddr: 0x214E4, symBinAddr: 0x100025344, symSize: 0x38 }
  - { offset: 0x1BB42, size: 0x8, addend: 0x0, symName: __ZN3fmt3v106detail12write_paddedILNS0_5align4typeE2ENS0_8appenderEcZNS1_14do_write_floatIS5_NS1_14big_decimal_fpEcNS1_14digit_groupingIcEEEET_SA_RKT0_RKNS0_12format_specsIT1_EENS1_11float_specsENS1_10locale_refEEUlS5_E1_EESB_SB_SI_mOT2_, symObjAddr: 0x214AC, symBinAddr: 0x10002530C, symSize: 0x38 }
  - { offset: 0x1BBCA, size: 0x8, addend: 0x0, symName: __ZN3fmt3v106detail17write_significandINS0_8appenderEcPKcNS1_14digit_groupingIcEEEET_S8_T1_iiT0_RKT2_, symObjAddr: 0x21330, symBinAddr: 0x100025190, symSize: 0x17C }
  - { offset: 0x1BD2C, size: 0x8, addend: 0x0, symName: __ZN3fmt3v106detail12write_paddedILNS0_5align4typeE2ENS0_8appenderEcZNS1_14do_write_floatIS5_NS1_14big_decimal_fpEcNS1_14digit_groupingIcEEEET_SA_RKT0_RKNS0_12format_specsIT1_EENS1_11float_specsENS1_10locale_refEEUlS5_E0_EESB_SB_SI_mOT2_, symObjAddr: 0x212F8, symBinAddr: 0x100025158, symSize: 0x38 }
  - { offset: 0x1BDAE, size: 0x8, addend: 0x0, symName: __ZN3fmt3v106detail17write_significandIcNS0_8appenderEPKcNS1_14digit_groupingIcEEEET0_S8_T1_iiRKT2_, symObjAddr: 0x21184, symBinAddr: 0x100024FE4, symSize: 0x174 }
  - { offset: 0x1BEDD, size: 0x8, addend: 0x0, symName: __ZN3fmt3v106detail12write_paddedILNS0_5align4typeE2ENS0_8appenderEcRZNS1_14do_write_floatIS5_NS1_14big_decimal_fpEcNS1_14digit_groupingIcEEEET_SA_RKT0_RKNS0_12format_specsIT1_EENS1_11float_specsENS1_10locale_refEEUlS5_E_EESB_SB_SI_mOT2_, symObjAddr: 0x2114C, symBinAddr: 0x100024FAC, symSize: 0x38 }
  - { offset: 0x1BF5F, size: 0x8, addend: 0x0, symName: __ZN3fmt3v106detail12write_paddedILNS0_5align4typeE2ENS0_8appenderEcZNS1_14do_write_floatIS5_NS1_14big_decimal_fpEcNS1_23fallback_digit_groupingIcEEEET_SA_RKT0_RKNS0_12format_specsIT1_EENS1_11float_specsENS1_10locale_refEEUlS5_E2_EESB_SB_SI_mOT2_, symObjAddr: 0x21114, symBinAddr: 0x100024F74, symSize: 0x38 }
  - { offset: 0x1BFE1, size: 0x8, addend: 0x0, symName: __ZN3fmt3v106detail17write_significandIcNS0_8appenderEEET0_S4_PKci, symObjAddr: 0x210DC, symBinAddr: 0x100024F3C, symSize: 0x38 }
  - { offset: 0x1C03F, size: 0x8, addend: 0x0, symName: __ZN3fmt3v106detail12write_paddedILNS0_5align4typeE2ENS0_8appenderEcZNS1_14do_write_floatIS5_NS1_14big_decimal_fpEcNS1_23fallback_digit_groupingIcEEEET_SA_RKT0_RKNS0_12format_specsIT1_EENS1_11float_specsENS1_10locale_refEEUlS5_E1_EESB_SB_SI_mOT2_, symObjAddr: 0x210A4, symBinAddr: 0x100024F04, symSize: 0x38 }
  - { offset: 0x1C0C7, size: 0x8, addend: 0x0, symName: __ZN3fmt3v106detail17write_significandINS0_8appenderEcPKcNS1_23fallback_digit_groupingIcEEEET_S8_T1_iiT0_RKT2_, symObjAddr: 0x20F28, symBinAddr: 0x100024D88, symSize: 0x17C }
  - { offset: 0x1C229, size: 0x8, addend: 0x0, symName: __ZN3fmt3v106detail12write_paddedILNS0_5align4typeE2ENS0_8appenderEcZNS1_14do_write_floatIS5_NS1_14big_decimal_fpEcNS1_23fallback_digit_groupingIcEEEET_SA_RKT0_RKNS0_12format_specsIT1_EENS1_11float_specsENS1_10locale_refEEUlS5_E0_EESB_SB_SI_mOT2_, symObjAddr: 0x20EF0, symBinAddr: 0x100024D50, symSize: 0x38 }
  - { offset: 0x1C2AB, size: 0x8, addend: 0x0, symName: __ZN3fmt3v106detail17write_significandIcNS0_8appenderEPKcNS1_23fallback_digit_groupingIcEEEET0_S8_T1_iiRKT2_, symObjAddr: 0x20D7C, symBinAddr: 0x100024BDC, symSize: 0x174 }
  - { offset: 0x1C3DA, size: 0x8, addend: 0x0, symName: __ZN3fmt3v106detail12write_paddedILNS0_5align4typeE2ENS0_8appenderEcRZNS1_14do_write_floatIS5_NS1_14big_decimal_fpEcNS1_23fallback_digit_groupingIcEEEET_SA_RKT0_RKNS0_12format_specsIT1_EENS1_11float_specsENS1_10locale_refEEUlS5_E_EESB_SB_SI_mOT2_, symObjAddr: 0x20D44, symBinAddr: 0x100024BA4, symSize: 0x38 }
  - { offset: 0x1C45C, size: 0x8, addend: 0x0, symName: __ZN3fmt3v106detail17write_significandINS0_8appenderEcEET_S4_PKciiT0_, symObjAddr: 0x20C90, symBinAddr: 0x100024AF0, symSize: 0xB4 }
  - { offset: 0x1C4DC, size: 0x8, addend: 0x0, symName: __ZN3fmt3v106detail6fill_nIPcicEET_S4_T0_RKT1_, symObjAddr: 0x20C34, symBinAddr: 0x100024A94, symSize: 0x5C }
  - { offset: 0x1C567, size: 0x8, addend: 0x0, symName: __ZN3fmt3v106detail12write_paddedILNS0_5align4typeE2ENS0_8appenderEcRZNS1_11write_bytesILS4_2EcS5_EET1_S7_NS0_17basic_string_viewIcEERKNS0_12format_specsIT0_EEEUlS5_E_EESB_SB_RKNSA_IS7_EEmmOT2_, symObjAddr: 0x20AF0, symBinAddr: 0x100024950, symSize: 0x144 }
  - { offset: 0x1C667, size: 0x8, addend: 0x0, symName: __ZN3fmt3v106detail8basic_fpIyE6assignIdLi0EEEbT_, symObjAddr: 0x209D4, symBinAddr: 0x100024834, symSize: 0x11C }
  - { offset: 0x1C7A0, size: 0x8, addend: 0x0, symName: __ZN3fmt3v106detail15write_codepointILm8EcNS0_8appenderEEET1_S4_cj, symObjAddr: 0x2090C, symBinAddr: 0x10002476C, symSize: 0xC8 }
  - { offset: 0x1C819, size: 0x8, addend: 0x0, symName: __ZN3fmt3v106detail15write_codepointILm4EcNS0_8appenderEEET1_S4_cj, symObjAddr: 0x20844, symBinAddr: 0x1000246A4, symSize: 0xC8 }
  - { offset: 0x1C892, size: 0x8, addend: 0x0, symName: __ZN3fmt3v106detail15write_codepointILm2EcNS0_8appenderEEET1_S4_cj, symObjAddr: 0x2077C, symBinAddr: 0x1000245DC, symSize: 0xC8 }
  - { offset: 0x1C90B, size: 0x8, addend: 0x0, symName: __ZN3fmt3v106detail12write_paddedILNS0_5align4typeE2ENS0_8appenderEcZNS1_9write_intIS5_cZNS1_9write_intIcS5_oEET0_S8_NS1_13write_int_argIT1_EERKNS0_12format_specsIT_EENS1_10locale_refEEUlS5_E2_EESD_SD_ijRKNSC_IS8_EESA_EUlS5_E_EES8_S8_RKNSC_ISA_EEmOT2_, symObjAddr: 0x20744, symBinAddr: 0x1000245A4, symSize: 0x38 }
  - { offset: 0x1C98D, size: 0x8, addend: 0x0, symName: __ZN3fmt3v106detail11format_uintILj3EcoEEPT0_S4_T1_ib, symObjAddr: 0x20668, symBinAddr: 0x1000244C8, symSize: 0xDC }
  - { offset: 0x1CA4C, size: 0x8, addend: 0x0, symName: __ZN3fmt3v106detail12write_paddedILNS0_5align4typeE2ENS0_8appenderEcZNS1_9write_intIS5_cZNS1_9write_intIcS5_oEET0_S8_NS1_13write_int_argIT1_EERKNS0_12format_specsIT_EENS1_10locale_refEEUlS5_E1_EESD_SD_ijRKNSC_IS8_EESA_EUlS5_E_EES8_S8_RKNSC_ISA_EEmOT2_, symObjAddr: 0x20630, symBinAddr: 0x100024490, symSize: 0x38 }
  - { offset: 0x1CACE, size: 0x8, addend: 0x0, symName: __ZN3fmt3v106detail11format_uintILj1EcoEEPT0_S4_T1_ib, symObjAddr: 0x20554, symBinAddr: 0x1000243B4, symSize: 0xDC }
  - { offset: 0x1CB8D, size: 0x8, addend: 0x0, symName: __ZN3fmt3v106detail12write_paddedILNS0_5align4typeE2ENS0_8appenderEcZNS1_9write_intIS5_cZNS1_9write_intIcS5_oEET0_S8_NS1_13write_int_argIT1_EERKNS0_12format_specsIT_EENS1_10locale_refEEUlS5_E0_EESD_SD_ijRKNSC_IS8_EESA_EUlS5_E_EES8_S8_RKNSC_ISA_EEmOT2_, symObjAddr: 0x2051C, symBinAddr: 0x10002437C, symSize: 0x38 }
  - { offset: 0x1CC0F, size: 0x8, addend: 0x0, symName: __ZN3fmt3v106detail11format_uintILj4EcoEEPT0_S4_T1_ib, symObjAddr: 0x20444, symBinAddr: 0x1000242A4, symSize: 0xD8 }
  - { offset: 0x1CCCE, size: 0x8, addend: 0x0, symName: __ZN3fmt3v106detail12write_paddedILNS0_5align4typeE2ENS0_8appenderEcZNS1_9write_intIS5_cZNS1_9write_intIcS5_oEET0_S8_NS1_13write_int_argIT1_EERKNS0_12format_specsIT_EENS1_10locale_refEEUlS5_E_EESD_SD_ijRKNSC_IS8_EESA_EUlS5_E_EES8_S8_RKNSC_ISA_EEmOT2_, symObjAddr: 0x2040C, symBinAddr: 0x10002426C, symSize: 0x38 }
  - { offset: 0x1CD50, size: 0x8, addend: 0x0, symName: __ZN3fmt3v106detail12write_paddedILNS0_5align4typeE2ENS0_8appenderEcZNS1_9write_intIS5_cZNS1_9write_intIcS5_yEET0_S8_NS1_13write_int_argIT1_EERKNS0_12format_specsIT_EENS1_10locale_refEEUlS5_E2_EESD_SD_ijRKNSC_IS8_EESA_EUlS5_E_EES8_S8_RKNSC_ISA_EEmOT2_, symObjAddr: 0x203D4, symBinAddr: 0x100024234, symSize: 0x38 }
  - { offset: 0x1CDD2, size: 0x8, addend: 0x0, symName: __ZN3fmt3v106detail11format_uintILj3EcyEEPT0_S4_T1_ib, symObjAddr: 0x20314, symBinAddr: 0x100024174, symSize: 0xC0 }
  - { offset: 0x1CE91, size: 0x8, addend: 0x0, symName: __ZN3fmt3v106detail12write_paddedILNS0_5align4typeE2ENS0_8appenderEcZNS1_9write_intIS5_cZNS1_9write_intIcS5_yEET0_S8_NS1_13write_int_argIT1_EERKNS0_12format_specsIT_EENS1_10locale_refEEUlS5_E1_EESD_SD_ijRKNSC_IS8_EESA_EUlS5_E_EES8_S8_RKNSC_ISA_EEmOT2_, symObjAddr: 0x202DC, symBinAddr: 0x10002413C, symSize: 0x38 }
  - { offset: 0x1CF13, size: 0x8, addend: 0x0, symName: __ZN3fmt3v106detail11format_uintILj1EcyEEPT0_S4_T1_ib, symObjAddr: 0x2021C, symBinAddr: 0x10002407C, symSize: 0xC0 }
  - { offset: 0x1CFD2, size: 0x8, addend: 0x0, symName: __ZN3fmt3v106detail12write_paddedILNS0_5align4typeE2ENS0_8appenderEcZNS1_9write_intIS5_cZNS1_9write_intIcS5_yEET0_S8_NS1_13write_int_argIT1_EERKNS0_12format_specsIT_EENS1_10locale_refEEUlS5_E0_EESD_SD_ijRKNSC_IS8_EESA_EUlS5_E_EES8_S8_RKNSC_ISA_EEmOT2_, symObjAddr: 0x201E4, symBinAddr: 0x100024044, symSize: 0x38 }
  - { offset: 0x1D054, size: 0x8, addend: 0x0, symName: __ZN3fmt3v106detail12write_paddedILNS0_5align4typeE2ENS0_8appenderEcZNS1_9write_intIS5_cZNS1_9write_intIcS5_yEET0_S8_NS1_13write_int_argIT1_EERKNS0_12format_specsIT_EENS1_10locale_refEEUlS5_E_EESD_SD_ijRKNSC_IS8_EESA_EUlS5_E_EES8_S8_RKNSC_ISA_EEmOT2_, symObjAddr: 0x201AC, symBinAddr: 0x10002400C, symSize: 0x38 }
  - { offset: 0x1D0D6, size: 0x8, addend: 0x0, symName: __ZN3fmt3v106detail12write_paddedILNS0_5align4typeE2ENS0_8appenderEcZNS1_9write_intIS5_cZNS1_9write_intIcS5_jEET0_S8_NS1_13write_int_argIT1_EERKNS0_12format_specsIT_EENS1_10locale_refEEUlS5_E2_EESD_SD_ijRKNSC_IS8_EESA_EUlS5_E_EES8_S8_RKNSC_ISA_EEmOT2_, symObjAddr: 0x20174, symBinAddr: 0x100023FD4, symSize: 0x38 }
  - { offset: 0x1D158, size: 0x8, addend: 0x0, symName: __ZN3fmt3v106detail11format_uintILj3EcjEEPT0_S4_T1_ib, symObjAddr: 0x200B4, symBinAddr: 0x100023F14, symSize: 0xC0 }
  - { offset: 0x1D217, size: 0x8, addend: 0x0, symName: __ZN3fmt3v106detail12write_paddedILNS0_5align4typeE2ENS0_8appenderEcZNS1_9write_intIS5_cZNS1_9write_intIcS5_jEET0_S8_NS1_13write_int_argIT1_EERKNS0_12format_specsIT_EENS1_10locale_refEEUlS5_E1_EESD_SD_ijRKNSC_IS8_EESA_EUlS5_E_EES8_S8_RKNSC_ISA_EEmOT2_, symObjAddr: 0x2007C, symBinAddr: 0x100023EDC, symSize: 0x38 }
  - { offset: 0x1D299, size: 0x8, addend: 0x0, symName: __ZN3fmt3v106detail11format_uintILj1EcjEEPT0_S4_T1_ib, symObjAddr: 0x1FFBC, symBinAddr: 0x100023E1C, symSize: 0xC0 }
  - { offset: 0x1D358, size: 0x8, addend: 0x0, symName: __ZN3fmt3v106detail12write_paddedILNS0_5align4typeE2ENS0_8appenderEcZNS1_9write_intIS5_cZNS1_9write_intIcS5_jEET0_S8_NS1_13write_int_argIT1_EERKNS0_12format_specsIT_EENS1_10locale_refEEUlS5_E0_EESD_SD_ijRKNSC_IS8_EESA_EUlS5_E_EES8_S8_RKNSC_ISA_EEmOT2_, symObjAddr: 0x1FF84, symBinAddr: 0x100023DE4, symSize: 0x38 }
  - { offset: 0x1D3DA, size: 0x8, addend: 0x0, symName: __ZN3fmt3v106detail11format_uintILj4EcjEEPT0_S4_T1_ib, symObjAddr: 0x1FEC8, symBinAddr: 0x100023D28, symSize: 0xBC }
  - { offset: 0x1D499, size: 0x8, addend: 0x0, symName: __ZN3fmt3v106detail12write_paddedILNS0_5align4typeE2ENS0_8appenderEcZNS1_9write_intIS5_cZNS1_9write_intIcS5_jEET0_S8_NS1_13write_int_argIT1_EERKNS0_12format_specsIT_EENS1_10locale_refEEUlS5_E_EESD_SD_ijRKNSC_IS8_EESA_EUlS5_E_EES8_S8_RKNSC_ISA_EEmOT2_, symObjAddr: 0x1FE90, symBinAddr: 0x100023CF0, symSize: 0x38 }
  - { offset: 0x1D574, size: 0x8, addend: 0x0, symName: __ZN3fmt3v106detail14write_int_dataIcEC1EijRKNS0_12format_specsIcEE, symObjAddr: 0x1FD80, symBinAddr: 0x100023BE0, symSize: 0x110 }
  - { offset: 0x1D5DE, size: 0x8, addend: 0x0, symName: __ZSt18uninitialized_copyIPKcPcET0_T_S4_S3_, symObjAddr: 0x1FD44, symBinAddr: 0x100023BA4, symSize: 0x3C }
  - { offset: 0x1D65F, size: 0x8, addend: 0x0, symName: __ZN3fmt3v106detail12write_paddedILNS0_5align4typeE2ENS0_8appenderEcRZNS1_14do_write_floatIS5_NS1_9dragonbox10decimal_fpIdEEcNS1_14digit_groupingIcEEEET_SC_RKT0_RKNS0_12format_specsIT1_EENS1_11float_specsENS1_10locale_refEEUlS5_E2_EESD_SD_SK_mmOT2_, symObjAddr: 0x1FC00, symBinAddr: 0x100023A60, symSize: 0x144 }
  - { offset: 0x1D75B, size: 0x8, addend: 0x0, symName: __ZN3fmt3v106detail12write_paddedILNS0_5align4typeE2ENS0_8appenderEcRZNS1_14do_write_floatIS5_NS1_9dragonbox10decimal_fpIdEEcNS1_14digit_groupingIcEEEET_SC_RKT0_RKNS0_12format_specsIT1_EENS1_11float_specsENS1_10locale_refEEUlS5_E1_EESD_SD_SK_mmOT2_, symObjAddr: 0x1FABC, symBinAddr: 0x10002391C, symSize: 0x144 }
  - { offset: 0x1D85D, size: 0x8, addend: 0x0, symName: __ZN3fmt3v106detail12write_paddedILNS0_5align4typeE2ENS0_8appenderEcRZNS1_14do_write_floatIS5_NS1_9dragonbox10decimal_fpIdEEcNS1_14digit_groupingIcEEEET_SC_RKT0_RKNS0_12format_specsIT1_EENS1_11float_specsENS1_10locale_refEEUlS5_E0_EESD_SD_SK_mmOT2_, symObjAddr: 0x1F978, symBinAddr: 0x1000237D8, symSize: 0x144 }
  - { offset: 0x1D959, size: 0x8, addend: 0x0, symName: __ZN3fmt3v106detail12write_paddedILNS0_5align4typeE2ENS0_8appenderEcRZNS1_14do_write_floatIS5_NS1_9dragonbox10decimal_fpIdEEcNS1_14digit_groupingIcEEEET_SC_RKT0_RKNS0_12format_specsIT1_EENS1_11float_specsENS1_10locale_refEEUlS5_E_EESD_SD_SK_mmOT2_, symObjAddr: 0x1F834, symBinAddr: 0x100023694, symSize: 0x144 }
  - { offset: 0x1DA55, size: 0x8, addend: 0x0, symName: __ZN3fmt3v106detail12write_paddedILNS0_5align4typeE2ENS0_8appenderEcRZNS1_14do_write_floatIS5_NS1_9dragonbox10decimal_fpIdEEcNS1_23fallback_digit_groupingIcEEEET_SC_RKT0_RKNS0_12format_specsIT1_EENS1_11float_specsENS1_10locale_refEEUlS5_E2_EESD_SD_SK_mmOT2_, symObjAddr: 0x1F6F0, symBinAddr: 0x100023550, symSize: 0x144 }
  - { offset: 0x1DB51, size: 0x8, addend: 0x0, symName: __ZN3fmt3v106detail12write_paddedILNS0_5align4typeE2ENS0_8appenderEcRZNS1_14do_write_floatIS5_NS1_9dragonbox10decimal_fpIdEEcNS1_23fallback_digit_groupingIcEEEET_SC_RKT0_RKNS0_12format_specsIT1_EENS1_11float_specsENS1_10locale_refEEUlS5_E1_EESD_SD_SK_mmOT2_, symObjAddr: 0x1F5AC, symBinAddr: 0x10002340C, symSize: 0x144 }
  - { offset: 0x1DC4D, size: 0x8, addend: 0x0, symName: __ZN3fmt3v106detail12write_paddedILNS0_5align4typeE2ENS0_8appenderEcRZNS1_14do_write_floatIS5_NS1_9dragonbox10decimal_fpIdEEcNS1_23fallback_digit_groupingIcEEEET_SC_RKT0_RKNS0_12format_specsIT1_EENS1_11float_specsENS1_10locale_refEEUlS5_E0_EESD_SD_SK_mmOT2_, symObjAddr: 0x1F468, symBinAddr: 0x1000232C8, symSize: 0x144 }
  - { offset: 0x1DD49, size: 0x8, addend: 0x0, symName: __ZN3fmt3v106detail12write_paddedILNS0_5align4typeE2ENS0_8appenderEcRZNS1_14do_write_floatIS5_NS1_9dragonbox10decimal_fpIdEEcNS1_23fallback_digit_groupingIcEEEET_SC_RKT0_RKNS0_12format_specsIT1_EENS1_11float_specsENS1_10locale_refEEUlS5_E_EESD_SD_SK_mmOT2_, symObjAddr: 0x1F324, symBinAddr: 0x100023184, symSize: 0x144 }
  - { offset: 0x1DE45, size: 0x8, addend: 0x0, symName: __ZN3fmt3v106detail17write_significandIcyLi0EEEPT_S4_T0_iiS3_, symObjAddr: 0x1F0CC, symBinAddr: 0x100022F2C, symSize: 0x258 }
  - { offset: 0x1DF5F, size: 0x8, addend: 0x0, symName: __ZN3fmt3v106detail12write_paddedILNS0_5align4typeE2ENS0_8appenderEcRZNS1_14do_write_floatIS5_NS1_9dragonbox10decimal_fpIfEEcNS1_14digit_groupingIcEEEET_SC_RKT0_RKNS0_12format_specsIT1_EENS1_11float_specsENS1_10locale_refEEUlS5_E2_EESD_SD_SK_mmOT2_, symObjAddr: 0x1EF88, symBinAddr: 0x100022DE8, symSize: 0x144 }
  - { offset: 0x1E05B, size: 0x8, addend: 0x0, symName: __ZN3fmt3v106detail12write_paddedILNS0_5align4typeE2ENS0_8appenderEcRZNS1_14do_write_floatIS5_NS1_9dragonbox10decimal_fpIfEEcNS1_14digit_groupingIcEEEET_SC_RKT0_RKNS0_12format_specsIT1_EENS1_11float_specsENS1_10locale_refEEUlS5_E1_EESD_SD_SK_mmOT2_, symObjAddr: 0x1EE44, symBinAddr: 0x100022CA4, symSize: 0x144 }
  - { offset: 0x1E15D, size: 0x8, addend: 0x0, symName: __ZN3fmt3v106detail12write_paddedILNS0_5align4typeE2ENS0_8appenderEcRZNS1_14do_write_floatIS5_NS1_9dragonbox10decimal_fpIfEEcNS1_14digit_groupingIcEEEET_SC_RKT0_RKNS0_12format_specsIT1_EENS1_11float_specsENS1_10locale_refEEUlS5_E0_EESD_SD_SK_mmOT2_, symObjAddr: 0x1ED00, symBinAddr: 0x100022B60, symSize: 0x144 }
  - { offset: 0x1E25D, size: 0x8, addend: 0x0, symName: __ZNK3fmt3v106detail14digit_groupingIcE13has_separatorEv, symObjAddr: 0x1ECD8, symBinAddr: 0x100022B38, symSize: 0x28 }
  - { offset: 0x1E283, size: 0x8, addend: 0x0, symName: __ZN3fmt3v106detail13thousands_sepIcEENS1_20thousands_sep_resultIT_EENS1_10locale_refE, symObjAddr: 0x1EC64, symBinAddr: 0x100022AC4, symSize: 0x74 }
  - { offset: 0x1E2C7, size: 0x8, addend: 0x0, symName: __ZN3fmt3v106detail12write_paddedILNS0_5align4typeE2ENS0_8appenderEcRZNS1_14do_write_floatIS5_NS1_9dragonbox10decimal_fpIfEEcNS1_14digit_groupingIcEEEET_SC_RKT0_RKNS0_12format_specsIT1_EENS1_11float_specsENS1_10locale_refEEUlS5_E_EESD_SD_SK_mmOT2_, symObjAddr: 0x1EB20, symBinAddr: 0x100022980, symSize: 0x144 }
  - { offset: 0x1E3C3, size: 0x8, addend: 0x0, symName: __ZN3fmt3v106detail12write_paddedILNS0_5align4typeE2ENS0_8appenderEcRZNS1_14do_write_floatIS5_NS1_9dragonbox10decimal_fpIfEEcNS1_23fallback_digit_groupingIcEEEET_SC_RKT0_RKNS0_12format_specsIT1_EENS1_11float_specsENS1_10locale_refEEUlS5_E2_EESD_SD_SK_mmOT2_, symObjAddr: 0x1E9DC, symBinAddr: 0x10002283C, symSize: 0x144 }
  - { offset: 0x1E4BF, size: 0x8, addend: 0x0, symName: __ZN3fmt3v106detail12write_paddedILNS0_5align4typeE2ENS0_8appenderEcRZNS1_14do_write_floatIS5_NS1_9dragonbox10decimal_fpIfEEcNS1_23fallback_digit_groupingIcEEEET_SC_RKT0_RKNS0_12format_specsIT1_EENS1_11float_specsENS1_10locale_refEEUlS5_E1_EESD_SD_SK_mmOT2_, symObjAddr: 0x1E898, symBinAddr: 0x1000226F8, symSize: 0x144 }
  - { offset: 0x1E5D1, size: 0x8, addend: 0x0, symName: __ZN3fmt3v106detail12write_paddedILNS0_5align4typeE2ENS0_8appenderEcRZNS1_14do_write_floatIS5_NS1_9dragonbox10decimal_fpIfEEcNS1_23fallback_digit_groupingIcEEEET_SC_RKT0_RKNS0_12format_specsIT1_EENS1_11float_specsENS1_10locale_refEEUlS5_E0_EESD_SD_SK_mmOT2_, symObjAddr: 0x1E754, symBinAddr: 0x1000225B4, symSize: 0x144 }
  - { offset: 0x1E6D1, size: 0x8, addend: 0x0, symName: __ZNK3fmt3v106detail23fallback_digit_groupingIcE5applyINS0_8appenderEcEET_S6_NS0_17basic_string_viewIT0_EE, symObjAddr: 0x1E738, symBinAddr: 0x100022598, symSize: 0x1C }
  - { offset: 0x1E723, size: 0x8, addend: 0x0, symName: __ZN3fmt3v106detail12write_paddedILNS0_5align4typeE2ENS0_8appenderEcRZNS1_14do_write_floatIS5_NS1_9dragonbox10decimal_fpIfEEcNS1_23fallback_digit_groupingIcEEEET_SC_RKT0_RKNS0_12format_specsIT1_EENS1_11float_specsENS1_10locale_refEEUlS5_E_EESD_SD_SK_mmOT2_, symObjAddr: 0x1E5F4, symBinAddr: 0x100022454, symSize: 0x144 }
  - { offset: 0x1E81F, size: 0x8, addend: 0x0, symName: __ZN3fmt3v106detail17write_significandIcjLi0EEEPT_S4_T0_iiS3_, symObjAddr: 0x1E3B4, symBinAddr: 0x100022214, symSize: 0x240 }
  - { offset: 0x1E938, size: 0x8, addend: 0x0, symName: __ZN3fmt3v106detail18decimal_point_implIcEET_NS1_10locale_refE, symObjAddr: 0x1E350, symBinAddr: 0x1000221B0, symSize: 0x64 }
  - { offset: 0x1E96E, size: 0x8, addend: 0x0, symName: __ZNSt15__new_allocatorIiE10deallocateEPim, symObjAddr: 0x1E320, symBinAddr: 0x100022180, symSize: 0x30 }
  - { offset: 0x1E9B8, size: 0x8, addend: 0x0, symName: __ZNK3fmt3v106detail6bufferIiE8capacityEv, symObjAddr: 0x1E318, symBinAddr: 0x100022178, symSize: 0x8 }
  - { offset: 0x1E9E3, size: 0x8, addend: 0x0, symName: __ZN3fmt3v106detail6bufferIiE4dataEv, symObjAddr: 0x1E310, symBinAddr: 0x100022170, symSize: 0x8 }
  - { offset: 0x1EA29, size: 0x8, addend: 0x0, symName: __ZNK9__gnu_cxx17__normal_iteratorIPKcNSt7__cxx1112basic_stringIcSt11char_traitsIcESaIcEEEE4baseEv, symObjAddr: 0x1E2FC, symBinAddr: 0x10002215C, symSize: 0x14 }
  - { offset: 0x1EA7B, size: 0x8, addend: 0x0, symName: __ZN9__gnu_cxx17__normal_iteratorIPKcNSt7__cxx1112basic_stringIcSt11char_traitsIcESaIcEEEEC1ERKS2_, symObjAddr: 0x1E2D4, symBinAddr: 0x100022134, symSize: 0x28 }
  - { offset: 0x1EAAC, size: 0x8, addend: 0x0, symName: __ZN3fmt3v106detail16write_escaped_cpINS1_17counting_iteratorEcEET_S4_RKNS1_18find_escape_resultIT0_EE, symObjAddr: 0x1E008, symBinAddr: 0x100021E68, symSize: 0x2CC }
  - { offset: 0x1EB5E, size: 0x8, addend: 0x0, symName: __ZN3fmt3v106detail8copy_strIcPKcNS1_17counting_iteratorEEET1_T0_S7_S6_, symObjAddr: 0x1DFA8, symBinAddr: 0x100021E08, symSize: 0x60 }
  - { offset: 0x1EBD7, size: 0x8, addend: 0x0, symName: __ZN3fmt3v106detail17counting_iterator10value_typeaSIcEEvRKT_, symObjAddr: 0x1DF90, symBinAddr: 0x100021DF0, symSize: 0x18 }
  - { offset: 0x1ECD3, size: 0x8, addend: 0x0, symName: __ZN3fmt3v106detail14do_write_floatINS0_8appenderENS1_14big_decimal_fpEcNS1_14digit_groupingIcEEEET_S7_RKT0_RKNS0_12format_specsIT1_EENS1_11float_specsENS1_10locale_refE, symObjAddr: 0x1D938, symBinAddr: 0x100021798, symSize: 0x658 }
  - { offset: 0x1EE86, size: 0x8, addend: 0x0, symName: __ZZN3fmt3v106detail14do_write_floatINS0_8appenderENS1_14big_decimal_fpEcNS1_14digit_groupingIcEEEET_S7_RKT0_RKNS0_12format_specsIT1_EENS1_11float_specsENS1_10locale_refEENKUlvE_clEv, symObjAddr: 0x1D424, symBinAddr: 0x100021284, symSize: 0xA0 }
  - { offset: 0x1EFE6, size: 0x8, addend: 0x0, symName: __ZZN3fmt3v106detail14do_write_floatINS0_8appenderENS1_14big_decimal_fpEcNS1_14digit_groupingIcEEEET_S7_RKT0_RKNS0_12format_specsIT1_EENS1_11float_specsENS1_10locale_refEENKUlS3_E2_clES3_, symObjAddr: 0x1D800, symBinAddr: 0x100021660, symSize: 0x138 }
  - { offset: 0x1F206, size: 0x8, addend: 0x0, symName: __ZZN3fmt3v106detail14do_write_floatINS0_8appenderENS1_14big_decimal_fpEcNS1_14digit_groupingIcEEEET_S7_RKT0_RKNS0_12format_specsIT1_EENS1_11float_specsENS1_10locale_refEENKUlS3_E_clES3_, symObjAddr: 0x1D4C4, symBinAddr: 0x100021324, symSize: 0x108 }
  - { offset: 0x1F3A1, size: 0x8, addend: 0x0, symName: __ZZN3fmt3v106detail14do_write_floatINS0_8appenderENS1_14big_decimal_fpEcNS1_14digit_groupingIcEEEET_S7_RKT0_RKNS0_12format_specsIT1_EENS1_11float_specsENS1_10locale_refEENKUlS3_E0_clES3_, symObjAddr: 0x1D5CC, symBinAddr: 0x10002142C, symSize: 0x144 }
  - { offset: 0x1F543, size: 0x8, addend: 0x0, symName: __ZZN3fmt3v106detail14do_write_floatINS0_8appenderENS1_14big_decimal_fpEcNS1_14digit_groupingIcEEEET_S7_RKT0_RKNS0_12format_specsIT1_EENS1_11float_specsENS1_10locale_refEENKUlS3_E1_clES3_, symObjAddr: 0x1D710, symBinAddr: 0x100021570, symSize: 0xF0 }
  - { offset: 0x1F60B, size: 0x8, addend: 0x0, symName: __ZN3fmt3v106detail14do_write_floatINS0_8appenderENS1_14big_decimal_fpEcNS1_23fallback_digit_groupingIcEEEET_S7_RKT0_RKNS0_12format_specsIT1_EENS1_11float_specsENS1_10locale_refE, symObjAddr: 0x1CE28, symBinAddr: 0x100020C88, symSize: 0x5FC }
  - { offset: 0x1F7BE, size: 0x8, addend: 0x0, symName: __ZZN3fmt3v106detail14do_write_floatINS0_8appenderENS1_14big_decimal_fpEcNS1_23fallback_digit_groupingIcEEEET_S7_RKT0_RKNS0_12format_specsIT1_EENS1_11float_specsENS1_10locale_refEENKUlvE_clEv, symObjAddr: 0x1C914, symBinAddr: 0x100020774, symSize: 0xA0 }
  - { offset: 0x1F91E, size: 0x8, addend: 0x0, symName: __ZZN3fmt3v106detail14do_write_floatINS0_8appenderENS1_14big_decimal_fpEcNS1_23fallback_digit_groupingIcEEEET_S7_RKT0_RKNS0_12format_specsIT1_EENS1_11float_specsENS1_10locale_refEENKUlS3_E2_clES3_, symObjAddr: 0x1CCF0, symBinAddr: 0x100020B50, symSize: 0x138 }
  - { offset: 0x1FB3E, size: 0x8, addend: 0x0, symName: __ZZN3fmt3v106detail14do_write_floatINS0_8appenderENS1_14big_decimal_fpEcNS1_23fallback_digit_groupingIcEEEET_S7_RKT0_RKNS0_12format_specsIT1_EENS1_11float_specsENS1_10locale_refEENKUlS3_E_clES3_, symObjAddr: 0x1C9B4, symBinAddr: 0x100020814, symSize: 0x108 }
  - { offset: 0x1FCE5, size: 0x8, addend: 0x0, symName: __ZZN3fmt3v106detail14do_write_floatINS0_8appenderENS1_14big_decimal_fpEcNS1_23fallback_digit_groupingIcEEEET_S7_RKT0_RKNS0_12format_specsIT1_EENS1_11float_specsENS1_10locale_refEENKUlS3_E0_clES3_, symObjAddr: 0x1CABC, symBinAddr: 0x10002091C, symSize: 0x144 }
  - { offset: 0x1FE93, size: 0x8, addend: 0x0, symName: __ZZN3fmt3v106detail14do_write_floatINS0_8appenderENS1_14big_decimal_fpEcNS1_23fallback_digit_groupingIcEEEET_S7_RKT0_RKNS0_12format_specsIT1_EENS1_11float_specsENS1_10locale_refEENKUlS3_E1_clES3_, symObjAddr: 0x1CC00, symBinAddr: 0x100020A60, symSize: 0xF0 }
  - { offset: 0x1FF5F, size: 0x8, addend: 0x0, symName: __ZN3fmt3v106detail6bufferIcEixImEERcT_, symObjAddr: 0x1C908, symBinAddr: 0x100020768, symSize: 0xC }
  - { offset: 0x1FFA3, size: 0x8, addend: 0x0, symName: __ZN3fmt3v106detail8basic_fpIoE6assignIdLi0EEEbT_, symObjAddr: 0x1C7AC, symBinAddr: 0x10002060C, symSize: 0x15C }
  - { offset: 0x2005A, size: 0x8, addend: 0x0, symName: __ZN3fmt3v106detail8basic_fpIoE6assignIfLi0EEEbT_, symObjAddr: 0x1C64C, symBinAddr: 0x1000204AC, symSize: 0x160 }
  - { offset: 0x2010D, size: 0x8, addend: 0x0, symName: __ZN3fmt3v106detail6fill_nIciEEPT_S4_T0_c, symObjAddr: 0x1C5C4, symBinAddr: 0x100020424, symSize: 0x88 }
  - { offset: 0x2018F, size: 0x8, addend: 0x0, symName: __ZN3fmt3v106detail12write_paddedILNS0_5align4typeE2ENS0_8appenderEcZNS1_11write_bytesILS4_2EcS5_EET1_S7_NS0_17basic_string_viewIcEERKNS0_12format_specsIT0_EEEUlS5_E_EESB_SB_RKNSA_IS7_EEmOT2_, symObjAddr: 0x1C58C, symBinAddr: 0x1000203EC, symSize: 0x38 }
  - { offset: 0x20211, size: 0x8, addend: 0x0, symName: __ZN3fmt3v106detail11format_uintILj4EcyEEPT0_S4_T1_ib, symObjAddr: 0x1C4D0, symBinAddr: 0x100020330, symSize: 0xBC }
  - { offset: 0x20305, size: 0x8, addend: 0x0, symName: __ZN3fmt3v106detail8basic_fpIyEC1IdEET_, symObjAddr: 0x1C4A8, symBinAddr: 0x100020308, symSize: 0x28 }
  - { offset: 0x2039B, size: 0x8, addend: 0x0, symName: __ZN3fmt3v106detail11is_negativeIhLi0EEEbT_, symObjAddr: 0x1C494, symBinAddr: 0x1000202F4, symSize: 0x14 }
  - { offset: 0x203C6, size: 0x8, addend: 0x0, symName: __ZN3fmt3v106detail8make_argINS0_20basic_format_contextINS0_8appenderEcEEhEENS0_16basic_format_argIT_EERT0_, symObjAddr: 0x1C454, symBinAddr: 0x1000202B4, symSize: 0x40 }
  - { offset: 0x20479, size: 0x8, addend: 0x0, symName: __ZN3fmt3v106detail12write_paddedILNS0_5align4typeE1ENS0_8appenderEcRZNS1_10write_charIcS5_EET0_S7_T_RKNS0_12format_specsIS8_EEEUlS5_E_EES7_S7_RKNS9_IT1_EEmmOT2_, symObjAddr: 0x1C310, symBinAddr: 0x100020170, symSize: 0x144 }
  - { offset: 0x20575, size: 0x8, addend: 0x0, symName: __ZN3fmt3v106detail16write_escaped_cpINS0_8appenderEcEET_S4_RKNS1_18find_escape_resultIT0_EE, symObjAddr: 0x1C01C, symBinAddr: 0x10001FE7C, symSize: 0x2F4 }
  - { offset: 0x207D6, size: 0x8, addend: 0x0, symName: __ZN3fmt3v106detail11format_uintILj3EcNS0_8appenderEoEET1_S4_T2_ib, symObjAddr: 0x1BEC8, symBinAddr: 0x10001FD28, symSize: 0xA0 }
  - { offset: 0x2089D, size: 0x8, addend: 0x0, symName: __ZN3fmt3v106detail12count_digitsILi3EoEEiT0_, symObjAddr: 0x1BE30, symBinAddr: 0x10001FC90, symSize: 0x98 }
  - { offset: 0x2090A, size: 0x8, addend: 0x0, symName: __ZZN3fmt3v106detail12count_digitsILi3EoEEiT0_ENKUloE_clEo, symObjAddr: 0x1BDC4, symBinAddr: 0x10001FC24, symSize: 0x6C }
  - { offset: 0x20AEE, size: 0x8, addend: 0x0, symName: __ZN3fmt3v106detail11format_uintILj1EcNS0_8appenderEoEET1_S4_T2_ib, symObjAddr: 0x1BC70, symBinAddr: 0x10001FAD0, symSize: 0xA0 }
  - { offset: 0x20BB6, size: 0x8, addend: 0x0, symName: __ZN3fmt3v106detail12count_digitsILi1EoEEiT0_, symObjAddr: 0x1BBF0, symBinAddr: 0x10001FA50, symSize: 0x80 }
  - { offset: 0x20C23, size: 0x8, addend: 0x0, symName: __ZZN3fmt3v106detail12count_digitsILi1EoEEiT0_ENKUloE_clEo, symObjAddr: 0x1BB84, symBinAddr: 0x10001F9E4, symSize: 0x6C }
  - { offset: 0x20E07, size: 0x8, addend: 0x0, symName: __ZN3fmt3v106detail11format_uintILj4EcNS0_8appenderEoEET1_S4_T2_ib, symObjAddr: 0x1BA30, symBinAddr: 0x10001F890, symSize: 0xA0 }
  - { offset: 0x20ECB, size: 0x8, addend: 0x0, symName: __ZN3fmt3v106detail12count_digitsILi4EoEEiT0_, symObjAddr: 0x1B9A0, symBinAddr: 0x10001F800, symSize: 0x90 }
  - { offset: 0x20F38, size: 0x8, addend: 0x0, symName: __ZZN3fmt3v106detail12count_digitsILi4EoEEiT0_ENKUloE_clEo, symObjAddr: 0x1B934, symBinAddr: 0x10001F794, symSize: 0x6C }
  - { offset: 0x2132D, size: 0x8, addend: 0x0, symName: __ZN3fmt3v106detail11format_uintILj3EcNS0_8appenderEyEET1_S4_T2_ib, symObjAddr: 0x1B72C, symBinAddr: 0x10001F58C, symSize: 0xA0 }
  - { offset: 0x213E4, size: 0x8, addend: 0x0, symName: __ZN3fmt3v106detail12count_digitsILi3EyEEiT0_, symObjAddr: 0x1B694, symBinAddr: 0x10001F4F4, symSize: 0x98 }
  - { offset: 0x21451, size: 0x8, addend: 0x0, symName: __ZZN3fmt3v106detail12count_digitsILi3EyEEiT0_ENKUlyE_clEy, symObjAddr: 0x1B644, symBinAddr: 0x10001F4A4, symSize: 0x50 }
  - { offset: 0x21635, size: 0x8, addend: 0x0, symName: __ZN3fmt3v106detail11format_uintILj1EcNS0_8appenderEyEET1_S4_T2_ib, symObjAddr: 0x1B4F0, symBinAddr: 0x10001F350, symSize: 0xA0 }
  - { offset: 0x216FD, size: 0x8, addend: 0x0, symName: __ZN3fmt3v106detail12count_digitsILi1EyEEiT0_, symObjAddr: 0x1B470, symBinAddr: 0x10001F2D0, symSize: 0x80 }
  - { offset: 0x2176A, size: 0x8, addend: 0x0, symName: __ZZN3fmt3v106detail12count_digitsILi1EyEEiT0_ENKUlyE_clEy, symObjAddr: 0x1B420, symBinAddr: 0x10001F280, symSize: 0x50 }
  - { offset: 0x2194E, size: 0x8, addend: 0x0, symName: __ZN3fmt3v106detail11format_uintILj4EcNS0_8appenderEyEET1_S4_T2_ib, symObjAddr: 0x1B2CC, symBinAddr: 0x10001F12C, symSize: 0xA0 }
  - { offset: 0x21A11, size: 0x8, addend: 0x0, symName: __ZN3fmt3v106detail12count_digitsILi4EyEEiT0_, symObjAddr: 0x1B23C, symBinAddr: 0x10001F09C, symSize: 0x90 }
  - { offset: 0x21A7E, size: 0x8, addend: 0x0, symName: __ZZN3fmt3v106detail12count_digitsILi4EyEEiT0_ENKUlyE_clEy, symObjAddr: 0x1B1EC, symBinAddr: 0x10001F04C, symSize: 0x50 }
  - { offset: 0x21E17, size: 0x8, addend: 0x0, symName: __ZN3fmt3v106detail11format_uintILj3EcNS0_8appenderEjEET1_S4_T2_ib, symObjAddr: 0x1AFE4, symBinAddr: 0x10001EE44, symSize: 0xA0 }
  - { offset: 0x21EDA, size: 0x8, addend: 0x0, symName: __ZN3fmt3v106detail12count_digitsILi3EjEEiT0_, symObjAddr: 0x1AF4C, symBinAddr: 0x10001EDAC, symSize: 0x98 }
  - { offset: 0x21F47, size: 0x8, addend: 0x0, symName: __ZZN3fmt3v106detail12count_digitsILi3EjEEiT0_ENKUljE_clEj, symObjAddr: 0x1AEFC, symBinAddr: 0x10001ED5C, symSize: 0x50 }
  - { offset: 0x2212B, size: 0x8, addend: 0x0, symName: __ZN3fmt3v106detail11format_uintILj1EcNS0_8appenderEjEET1_S4_T2_ib, symObjAddr: 0x1ADA8, symBinAddr: 0x10001EC08, symSize: 0xA0 }
  - { offset: 0x221E3, size: 0x8, addend: 0x0, symName: __ZN3fmt3v106detail12count_digitsILi1EjEEiT0_, symObjAddr: 0x1AD28, symBinAddr: 0x10001EB88, symSize: 0x80 }
  - { offset: 0x22250, size: 0x8, addend: 0x0, symName: __ZZN3fmt3v106detail12count_digitsILi1EjEEiT0_ENKUljE_clEj, symObjAddr: 0x1ACD8, symBinAddr: 0x10001EB38, symSize: 0x50 }
  - { offset: 0x22434, size: 0x8, addend: 0x0, symName: __ZN3fmt3v106detail11format_uintILj4EcNS0_8appenderEjEET1_S4_T2_ib, symObjAddr: 0x1AB84, symBinAddr: 0x10001E9E4, symSize: 0xA0 }
  - { offset: 0x224F7, size: 0x8, addend: 0x0, symName: __ZN3fmt3v106detail12count_digitsILi4EjEEiT0_, symObjAddr: 0x1AAF4, symBinAddr: 0x10001E954, symSize: 0x90 }
  - { offset: 0x22564, size: 0x8, addend: 0x0, symName: __ZZN3fmt3v106detail12count_digitsILi4EjEEiT0_ENKUljE_clEj, symObjAddr: 0x1AAA4, symBinAddr: 0x10001E904, symSize: 0x50 }
  - { offset: 0x22748, size: 0x8, addend: 0x0, symName: __ZSt22__uninitialized_copy_nIPKcmPcET1_T_T0_S3_St26random_access_iterator_tag, symObjAddr: 0x1A9B4, symBinAddr: 0x10001E814, symSize: 0x3C }
  - { offset: 0x227B8, size: 0x8, addend: 0x0, symName: __ZN3fmt3v106detail12write_paddedILNS0_5align4typeE2ENS0_8appenderEcRZNS1_9write_ptrIcS5_mEET0_S7_T1_PKNS0_12format_specsIT_EEEUlS5_E_EES7_S7_RKNS9_IS8_EEmmOT2_, symObjAddr: 0x1A870, symBinAddr: 0x10001E6D0, symSize: 0x144 }
  - { offset: 0x228B4, size: 0x8, addend: 0x0, symName: __ZN3fmt3v106detail11format_uintILj4EcmEEPT0_S4_T1_ib, symObjAddr: 0x1A7B4, symBinAddr: 0x10001E614, symSize: 0xBC }
  - { offset: 0x22973, size: 0x8, addend: 0x0, symName: __ZN3fmt3v106detail12write_paddedILNS0_5align4typeE2ENS0_8appenderEcZNS1_14do_write_floatIS5_NS1_9dragonbox10decimal_fpIdEEcNS1_14digit_groupingIcEEEET_SC_RKT0_RKNS0_12format_specsIT1_EENS1_11float_specsENS1_10locale_refEEUlS5_E2_EESD_SD_SK_mOT2_, symObjAddr: 0x1A77C, symBinAddr: 0x10001E5DC, symSize: 0x38 }
  - { offset: 0x229F5, size: 0x8, addend: 0x0, symName: __ZN3fmt3v106detail12write_paddedILNS0_5align4typeE2ENS0_8appenderEcZNS1_14do_write_floatIS5_NS1_9dragonbox10decimal_fpIdEEcNS1_14digit_groupingIcEEEET_SC_RKT0_RKNS0_12format_specsIT1_EENS1_11float_specsENS1_10locale_refEEUlS5_E1_EESD_SD_SK_mOT2_, symObjAddr: 0x1A744, symBinAddr: 0x10001E5A4, symSize: 0x38 }
  - { offset: 0x22A77, size: 0x8, addend: 0x0, symName: __ZN3fmt3v106detail17write_significandINS0_8appenderEcyNS1_14digit_groupingIcEEEET_S6_T1_iiT0_RKT2_, symObjAddr: 0x1A5C8, symBinAddr: 0x10001E428, symSize: 0x17C }
  - { offset: 0x22BD9, size: 0x8, addend: 0x0, symName: __ZN3fmt3v106detail12write_paddedILNS0_5align4typeE2ENS0_8appenderEcZNS1_14do_write_floatIS5_NS1_9dragonbox10decimal_fpIdEEcNS1_14digit_groupingIcEEEET_SC_RKT0_RKNS0_12format_specsIT1_EENS1_11float_specsENS1_10locale_refEEUlS5_E0_EESD_SD_SK_mOT2_, symObjAddr: 0x1A590, symBinAddr: 0x10001E3F0, symSize: 0x38 }
  - { offset: 0x22C5B, size: 0x8, addend: 0x0, symName: __ZN3fmt3v106detail17write_significandIcNS0_8appenderEyNS1_14digit_groupingIcEEEET0_S6_T1_iiRKT2_, symObjAddr: 0x1A41C, symBinAddr: 0x10001E27C, symSize: 0x174 }
  - { offset: 0x22D8A, size: 0x8, addend: 0x0, symName: __ZN3fmt3v106detail12write_paddedILNS0_5align4typeE2ENS0_8appenderEcRZNS1_14do_write_floatIS5_NS1_9dragonbox10decimal_fpIdEEcNS1_14digit_groupingIcEEEET_SC_RKT0_RKNS0_12format_specsIT1_EENS1_11float_specsENS1_10locale_refEEUlS5_E_EESD_SD_SK_mOT2_, symObjAddr: 0x1A3E4, symBinAddr: 0x10001E244, symSize: 0x38 }
  - { offset: 0x22E0C, size: 0x8, addend: 0x0, symName: __ZN3fmt3v106detail12write_paddedILNS0_5align4typeE2ENS0_8appenderEcZNS1_14do_write_floatIS5_NS1_9dragonbox10decimal_fpIdEEcNS1_23fallback_digit_groupingIcEEEET_SC_RKT0_RKNS0_12format_specsIT1_EENS1_11float_specsENS1_10locale_refEEUlS5_E2_EESD_SD_SK_mOT2_, symObjAddr: 0x1A3AC, symBinAddr: 0x10001E20C, symSize: 0x38 }
  - { offset: 0x22E8E, size: 0x8, addend: 0x0, symName: __ZN3fmt3v106detail17write_significandIcNS0_8appenderEyEET0_S4_T1_i, symObjAddr: 0x1A378, symBinAddr: 0x10001E1D8, symSize: 0x34 }
  - { offset: 0x22EF5, size: 0x8, addend: 0x0, symName: __ZN3fmt3v106detail12write_paddedILNS0_5align4typeE2ENS0_8appenderEcZNS1_14do_write_floatIS5_NS1_9dragonbox10decimal_fpIdEEcNS1_23fallback_digit_groupingIcEEEET_SC_RKT0_RKNS0_12format_specsIT1_EENS1_11float_specsENS1_10locale_refEEUlS5_E1_EESD_SD_SK_mOT2_, symObjAddr: 0x1A340, symBinAddr: 0x10001E1A0, symSize: 0x38 }
  - { offset: 0x22F77, size: 0x8, addend: 0x0, symName: __ZN3fmt3v106detail17write_significandINS0_8appenderEcyNS1_23fallback_digit_groupingIcEEEET_S6_T1_iiT0_RKT2_, symObjAddr: 0x1A1C4, symBinAddr: 0x10001E024, symSize: 0x17C }
  - { offset: 0x230D9, size: 0x8, addend: 0x0, symName: __ZN3fmt3v106detail12write_paddedILNS0_5align4typeE2ENS0_8appenderEcZNS1_14do_write_floatIS5_NS1_9dragonbox10decimal_fpIdEEcNS1_23fallback_digit_groupingIcEEEET_SC_RKT0_RKNS0_12format_specsIT1_EENS1_11float_specsENS1_10locale_refEEUlS5_E0_EESD_SD_SK_mOT2_, symObjAddr: 0x1A18C, symBinAddr: 0x10001DFEC, symSize: 0x38 }
  - { offset: 0x2315B, size: 0x8, addend: 0x0, symName: __ZN3fmt3v106detail17write_significandIcNS0_8appenderEyNS1_23fallback_digit_groupingIcEEEET0_S6_T1_iiRKT2_, symObjAddr: 0x1A018, symBinAddr: 0x10001DE78, symSize: 0x174 }
  - { offset: 0x2328A, size: 0x8, addend: 0x0, symName: __ZN3fmt3v106detail12write_paddedILNS0_5align4typeE2ENS0_8appenderEcRZNS1_14do_write_floatIS5_NS1_9dragonbox10decimal_fpIdEEcNS1_23fallback_digit_groupingIcEEEET_SC_RKT0_RKNS0_12format_specsIT1_EENS1_11float_specsENS1_10locale_refEEUlS5_E_EESD_SD_SK_mOT2_, symObjAddr: 0x19FE0, symBinAddr: 0x10001DE40, symSize: 0x38 }
  - { offset: 0x2330C, size: 0x8, addend: 0x0, symName: __ZN3fmt3v106detail17write_significandINS0_8appenderEycLi0EEET_S4_T0_iiT1_, symObjAddr: 0x19F88, symBinAddr: 0x10001DDE8, symSize: 0x58 }
  - { offset: 0x233C3, size: 0x8, addend: 0x0, symName: __ZN3fmt3v106detail20get_significand_sizeIdEEiRKNS1_9dragonbox10decimal_fpIT_EE, symObjAddr: 0x19F68, symBinAddr: 0x10001DDC8, symSize: 0x20 }
  - { offset: 0x233F6, size: 0x8, addend: 0x0, symName: __ZN3fmt3v106detail9dragonbox41is_left_endpoint_integer_shorter_intervalIdEEbi, symObjAddr: 0x19F24, symBinAddr: 0x10001DD84, symSize: 0x44 }
  - { offset: 0x2344B, size: 0x8, addend: 0x0, symName: __ZN3fmt3v106detail12write_paddedILNS0_5align4typeE2ENS0_8appenderEcZNS1_14do_write_floatIS5_NS1_9dragonbox10decimal_fpIfEEcNS1_14digit_groupingIcEEEET_SC_RKT0_RKNS0_12format_specsIT1_EENS1_11float_specsENS1_10locale_refEEUlS5_E2_EESD_SD_SK_mOT2_, symObjAddr: 0x19EEC, symBinAddr: 0x10001DD4C, symSize: 0x38 }
  - { offset: 0x234CD, size: 0x8, addend: 0x0, symName: __ZN3fmt3v106detail12write_paddedILNS0_5align4typeE2ENS0_8appenderEcZNS1_14do_write_floatIS5_NS1_9dragonbox10decimal_fpIfEEcNS1_14digit_groupingIcEEEET_SC_RKT0_RKNS0_12format_specsIT1_EENS1_11float_specsENS1_10locale_refEEUlS5_E1_EESD_SD_SK_mOT2_, symObjAddr: 0x19EB4, symBinAddr: 0x10001DD14, symSize: 0x38 }
  - { offset: 0x2354F, size: 0x8, addend: 0x0, symName: __ZN3fmt3v106detail17write_significandINS0_8appenderEcjNS1_14digit_groupingIcEEEET_S6_T1_iiT0_RKT2_, symObjAddr: 0x19D38, symBinAddr: 0x10001DB98, symSize: 0x17C }
  - { offset: 0x236B1, size: 0x8, addend: 0x0, symName: __ZN3fmt3v106detail12write_paddedILNS0_5align4typeE2ENS0_8appenderEcZNS1_14do_write_floatIS5_NS1_9dragonbox10decimal_fpIfEEcNS1_14digit_groupingIcEEEET_SC_RKT0_RKNS0_12format_specsIT1_EENS1_11float_specsENS1_10locale_refEEUlS5_E0_EESD_SD_SK_mOT2_, symObjAddr: 0x19D00, symBinAddr: 0x10001DB60, symSize: 0x38 }
  - { offset: 0x23733, size: 0x8, addend: 0x0, symName: __ZN3fmt3v106detail17write_significandIcNS0_8appenderEjNS1_14digit_groupingIcEEEET0_S6_T1_iiRKT2_, symObjAddr: 0x19B8C, symBinAddr: 0x10001D9EC, symSize: 0x174 }
  - { offset: 0x238AD, size: 0x8, addend: 0x0, symName: __ZN3fmt3v106detail14digit_groupingIcEC1ENS1_10locale_refEb, symObjAddr: 0x19AB8, symBinAddr: 0x10001D918, symSize: 0xD4 }
  - { offset: 0x2393A, size: 0x8, addend: 0x0, symName: __ZN3fmt3v106detail20thousands_sep_resultIcED1Ev, symObjAddr: 0x19A98, symBinAddr: 0x10001D8F8, symSize: 0x20 }
  - { offset: 0x2395C, size: 0x8, addend: 0x0, symName: __ZN3fmt3v106detail12write_paddedILNS0_5align4typeE2ENS0_8appenderEcRZNS1_14do_write_floatIS5_NS1_9dragonbox10decimal_fpIfEEcNS1_14digit_groupingIcEEEET_SC_RKT0_RKNS0_12format_specsIT1_EENS1_11float_specsENS1_10locale_refEEUlS5_E_EESD_SD_SK_mOT2_, symObjAddr: 0x19A60, symBinAddr: 0x10001D8C0, symSize: 0x38 }
  - { offset: 0x239DE, size: 0x8, addend: 0x0, symName: __ZN3fmt3v106detail12write_paddedILNS0_5align4typeE2ENS0_8appenderEcZNS1_14do_write_floatIS5_NS1_9dragonbox10decimal_fpIfEEcNS1_23fallback_digit_groupingIcEEEET_SC_RKT0_RKNS0_12format_specsIT1_EENS1_11float_specsENS1_10locale_refEEUlS5_E2_EESD_SD_SK_mOT2_, symObjAddr: 0x19A28, symBinAddr: 0x10001D888, symSize: 0x38 }
  - { offset: 0x23A60, size: 0x8, addend: 0x0, symName: __ZN3fmt3v106detail17write_significandIcNS0_8appenderEjEET0_S4_T1_i, symObjAddr: 0x199F4, symBinAddr: 0x10001D854, symSize: 0x34 }
  - { offset: 0x23AC7, size: 0x8, addend: 0x0, symName: __ZN3fmt3v106detail12write_paddedILNS0_5align4typeE2ENS0_8appenderEcZNS1_14do_write_floatIS5_NS1_9dragonbox10decimal_fpIfEEcNS1_23fallback_digit_groupingIcEEEET_SC_RKT0_RKNS0_12format_specsIT1_EENS1_11float_specsENS1_10locale_refEEUlS5_E1_EESD_SD_SK_mOT2_, symObjAddr: 0x199BC, symBinAddr: 0x10001D81C, symSize: 0x38 }
  - { offset: 0x23B49, size: 0x8, addend: 0x0, symName: __ZN3fmt3v106detail17write_significandINS0_8appenderEcjNS1_23fallback_digit_groupingIcEEEET_S6_T1_iiT0_RKT2_, symObjAddr: 0x19840, symBinAddr: 0x10001D6A0, symSize: 0x17C }
  - { offset: 0x23CAB, size: 0x8, addend: 0x0, symName: __ZN3fmt3v106detail12write_paddedILNS0_5align4typeE2ENS0_8appenderEcZNS1_14do_write_floatIS5_NS1_9dragonbox10decimal_fpIfEEcNS1_23fallback_digit_groupingIcEEEET_SC_RKT0_RKNS0_12format_specsIT1_EENS1_11float_specsENS1_10locale_refEEUlS5_E0_EESD_SD_SK_mOT2_, symObjAddr: 0x19808, symBinAddr: 0x10001D668, symSize: 0x38 }
  - { offset: 0x23D2D, size: 0x8, addend: 0x0, symName: __ZN3fmt3v106detail17write_significandIcNS0_8appenderEjNS1_23fallback_digit_groupingIcEEEET0_S6_T1_iiRKT2_, symObjAddr: 0x19694, symBinAddr: 0x10001D4F4, symSize: 0x174 }
  - { offset: 0x23E60, size: 0x8, addend: 0x0, symName: __ZNK3fmt3v106detail23fallback_digit_groupingIcE13has_separatorEv, symObjAddr: 0x19680, symBinAddr: 0x10001D4E0, symSize: 0x14 }
  - { offset: 0x23E8A, size: 0x8, addend: 0x0, symName: __ZNK3fmt3v106detail23fallback_digit_groupingIcE16count_separatorsEi, symObjAddr: 0x19668, symBinAddr: 0x10001D4C8, symSize: 0x18 }
  - { offset: 0x23EE1, size: 0x8, addend: 0x0, symName: __ZN3fmt3v106detail23fallback_digit_groupingIcEC1ENS1_10locale_refEb, symObjAddr: 0x19648, symBinAddr: 0x10001D4A8, symSize: 0x20 }
  - { offset: 0x23F15, size: 0x8, addend: 0x0, symName: __ZN3fmt3v106detail12write_paddedILNS0_5align4typeE2ENS0_8appenderEcRZNS1_14do_write_floatIS5_NS1_9dragonbox10decimal_fpIfEEcNS1_23fallback_digit_groupingIcEEEET_SC_RKT0_RKNS0_12format_specsIT1_EENS1_11float_specsENS1_10locale_refEEUlS5_E_EESD_SD_SK_mOT2_, symObjAddr: 0x19610, symBinAddr: 0x10001D470, symSize: 0x38 }
  - { offset: 0x23F97, size: 0x8, addend: 0x0, symName: __ZN3fmt3v106detail14write_exponentIcNS0_8appenderEEET0_iS4_, symObjAddr: 0x193C4, symBinAddr: 0x10001D224, symSize: 0x24C }
  - { offset: 0x2401B, size: 0x8, addend: 0x0, symName: __ZN3fmt3v106detail6fill_nINS0_8appenderEicEET_S4_T0_RKT1_, symObjAddr: 0x19360, symBinAddr: 0x10001D1C0, symSize: 0x64 }
  - { offset: 0x240A6, size: 0x8, addend: 0x0, symName: __ZN3fmt3v106detail17write_significandINS0_8appenderEjcLi0EEET_S4_T0_iiT1_, symObjAddr: 0x19308, symBinAddr: 0x10001D168, symSize: 0x58 }
  - { offset: 0x24151, size: 0x8, addend: 0x0, symName: __ZN3fmt3v106detail13decimal_pointIcEET_NS1_10locale_refE, symObjAddr: 0x192EC, symBinAddr: 0x10001D14C, symSize: 0x1C }
  - { offset: 0x24184, size: 0x8, addend: 0x0, symName: __ZN3fmt3v106detail20get_significand_sizeIfEEiRKNS1_9dragonbox10decimal_fpIT_EE, symObjAddr: 0x192CC, symBinAddr: 0x10001D12C, symSize: 0x20 }
  - { offset: 0x241B7, size: 0x8, addend: 0x0, symName: __ZN3fmt3v106detail9dragonbox41is_left_endpoint_integer_shorter_intervalIfEEbi, symObjAddr: 0x19288, symBinAddr: 0x10001D0E8, symSize: 0x44 }
  - { offset: 0x2420C, size: 0x8, addend: 0x0, symName: __ZN3fmt3v106detail12write_paddedILNS0_5align4typeE1ENS0_8appenderEcRZNS1_15write_nonfiniteIcS5_EET0_S7_bNS0_12format_specsIT_EERKNS1_11float_specsEEUlS5_E_EES7_S7_RKNS8_IT1_EEmmOT2_, symObjAddr: 0x19144, symBinAddr: 0x10001CFA4, symSize: 0x144 }
  - { offset: 0x24308, size: 0x8, addend: 0x0, symName: __ZN3fmt3v106detail12write_paddedILNS0_5align4typeE1ENS0_8appenderEcRZNS1_11write_bytesILS4_1EcS5_EET1_S7_NS0_17basic_string_viewIcEERKNS0_12format_specsIT0_EEEUlS5_E_EESB_SB_RKNSA_IS7_EEmmOT2_, symObjAddr: 0x19000, symBinAddr: 0x10001CE60, symSize: 0x144 }
  - { offset: 0x24404, size: 0x8, addend: 0x0, symName: __ZN3fmt3v106detail8copy_strIcPcEENS0_8appenderET0_S5_S4_, symObjAddr: 0x18FBC, symBinAddr: 0x10001CE1C, symSize: 0x44 }
  - { offset: 0x24491, size: 0x8, addend: 0x0, symName: __ZN3fmt3v106detail7arg_refIcE5valueC1ENS0_17basic_string_viewIcEE, symObjAddr: 0x18FB4, symBinAddr: 0x10001CE14, symSize: 0x8 }
  - { offset: 0x244BF, size: 0x8, addend: 0x0, symName: __ZN3fmt3v106detail6fill_nINS0_8appenderEmcEET_S4_T0_RKT1_, symObjAddr: 0x18F50, symBinAddr: 0x10001CDB0, symSize: 0x64 }
  - { offset: 0x2454E, size: 0x8, addend: 0x0, symName: __ZNK3fmt3v106detail6fill_tIcEixEm, symObjAddr: 0x18F48, symBinAddr: 0x10001CDA8, symSize: 0x8 }
  - { offset: 0x24589, size: 0x8, addend: 0x0, symName: __ZN3fmt3v106detail6bufferIiE11try_reserveEm, symObjAddr: 0x18F1C, symBinAddr: 0x10001CD7C, symSize: 0x2C }
  - { offset: 0x245C6, size: 0x8, addend: 0x0, symName: __ZN3fmt3v1019basic_memory_bufferIiLm500ESaIiEE10deallocateEv, symObjAddr: 0x18EBC, symBinAddr: 0x10001CD1C, symSize: 0x60 }
  - { offset: 0x245FD, size: 0x8, addend: 0x0, symName: __ZN3fmt3v106detail6fill_nIPimiEET_S4_T0_RKT1_, symObjAddr: 0x18E64, symBinAddr: 0x10001CCC4, symSize: 0x58 }
  - { offset: 0x2468C, size: 0x8, addend: 0x0, symName: __ZN3fmt3v106detail6bufferIiE3setEPim, symObjAddr: 0x18E58, symBinAddr: 0x10001CCB8, symSize: 0xC }
  - { offset: 0x2473C, size: 0x8, addend: 0x0, symName: __ZN3fmt3v106detail6bufferIiEC2EPimm, symObjAddr: 0x18E38, symBinAddr: 0x10001CC98, symSize: 0x20 }
  - { offset: 0x2479D, size: 0x8, addend: 0x0, symName: __ZNSt15__new_allocatorIiED2Ev, symObjAddr: 0x18E24, symBinAddr: 0x10001CC84, symSize: 0x14 }
  - { offset: 0x247D9, size: 0x8, addend: 0x0, symName: __ZN9__gnu_cxx17__normal_iteratorIPKcNSt7__cxx1112basic_stringIcSt11char_traitsIcESaIcEEEEppEi, symObjAddr: 0x18DE4, symBinAddr: 0x10001CC44, symSize: 0x40 }
  - { offset: 0x24808, size: 0x8, addend: 0x0, symName: __ZN3fmt3v106detail9max_valueIcEET_v, symObjAddr: 0x18DD0, symBinAddr: 0x10001CC30, symSize: 0x14 }
  - { offset: 0x2482E, size: 0x8, addend: 0x0, symName: __ZNK9__gnu_cxx17__normal_iteratorIPKcNSt7__cxx1112basic_stringIcSt11char_traitsIcESaIcEEEEdeEv, symObjAddr: 0x18DB8, symBinAddr: 0x10001CC18, symSize: 0x18 }
  - { offset: 0x2485A, size: 0x8, addend: 0x0, symName: __ZN9__gnu_cxxeqIPKcNSt7__cxx1112basic_stringIcSt11char_traitsIcESaIcEEEEEbRKNS_17__normal_iteratorIT_T0_EESE_, symObjAddr: 0x18D74, symBinAddr: 0x10001CBD4, symSize: 0x44 }
  - { offset: 0x248A7, size: 0x8, addend: 0x0, symName: __ZN3fmt3v106detail12write_paddedILNS0_5align4typeE1ENS0_8appenderEcZNS1_5writeIcS5_EET0_S7_NS0_17basic_string_viewIT_EERKNS0_12format_specsIS9_EEEUlS5_E_EES7_S7_RKNSB_IT1_EEmmOT2_, symObjAddr: 0x18C30, symBinAddr: 0x10001CA90, symSize: 0x144 }
  - { offset: 0x249A4, size: 0x8, addend: 0x0, symName: __ZN3fmt3v106detail20write_escaped_stringIcNS0_8appenderEEET0_S4_NS0_17basic_string_viewIT_EE, symObjAddr: 0x18B28, symBinAddr: 0x10001C988, symSize: 0x108 }
  - { offset: 0x24A2E, size: 0x8, addend: 0x0, symName: __ZN3fmt3v106detail20write_escaped_stringIcNS1_17counting_iteratorEEET0_S4_NS0_17basic_string_viewIT_EE, symObjAddr: 0x18A30, symBinAddr: 0x10001C890, symSize: 0xF8 }
  - { offset: 0x24AB8, size: 0x8, addend: 0x0, symName: __ZN3fmt3v106detail13convert_floatIeEENSt11conditionalIXoosrSt7is_sameIT_fE5valueeqcl8num_bitsIS5_EEclL_ZNS1_8num_bitsIdEEivEEEdS5_E4typeES5_, symObjAddr: 0x18A18, symBinAddr: 0x10001C878, symSize: 0x18 }
  - { offset: 0x24AEB, size: 0x8, addend: 0x0, symName: __ZN3fmt3v106detail5isnanIeEEbT_, symObjAddr: 0x189EC, symBinAddr: 0x10001C84C, symSize: 0x2C }
  - { offset: 0x24B1E, size: 0x8, addend: 0x0, symName: __ZN3fmt3v106detail8isfiniteIeLi0EEEbT_, symObjAddr: 0x1894C, symBinAddr: 0x10001C7AC, symSize: 0xA0 }
  - { offset: 0x24B86, size: 0x8, addend: 0x0, symName: __ZN3fmt3v106detail8make_argINS0_20basic_format_contextINS0_8appenderEcEEeEENS0_16basic_format_argIT_EERT0_, symObjAddr: 0x18910, symBinAddr: 0x10001C770, symSize: 0x3C }
  - { offset: 0x24C39, size: 0x8, addend: 0x0, symName: __ZN3fmt3v106detail13convert_floatIdEENSt11conditionalIXoosrSt7is_sameIT_fE5valueeqcl8num_bitsIS5_EEclL_ZNS1_8num_bitsIdEEivEEEdS5_E4typeES5_, symObjAddr: 0x188F8, symBinAddr: 0x10001C758, symSize: 0x18 }
  - { offset: 0x24C6C, size: 0x8, addend: 0x0, symName: __ZN3fmt3v106detail5isnanIdEEbT_, symObjAddr: 0x188CC, symBinAddr: 0x10001C72C, symSize: 0x2C }
  - { offset: 0x24C9F, size: 0x8, addend: 0x0, symName: __ZN3fmt3v106detail8isfiniteIdLi0EEEbT_, symObjAddr: 0x1882C, symBinAddr: 0x10001C68C, symSize: 0xA0 }
  - { offset: 0x24D07, size: 0x8, addend: 0x0, symName: __ZN3fmt3v106detail8make_argINS0_20basic_format_contextINS0_8appenderEcEEdEENS0_16basic_format_argIT_EERT0_, symObjAddr: 0x187F0, symBinAddr: 0x10001C650, symSize: 0x3C }
  - { offset: 0x24DBA, size: 0x8, addend: 0x0, symName: __ZN3fmt3v106detail11write_floatINS0_8appenderENS1_14big_decimal_fpEcEET_S5_RKT0_RKNS0_12format_specsIT1_EENS1_11float_specsENS1_10locale_refE, symObjAddr: 0x1877C, symBinAddr: 0x10001C5DC, symSize: 0x74 }
  - { offset: 0x24E67, size: 0x8, addend: 0x0, symName: __ZN3fmt3v106detail12format_floatIdEEiT_iNS1_11float_specsERNS1_6bufferIcEE, symObjAddr: 0x17C04, symBinAddr: 0x10001BA64, symSize: 0xB78 }
  - { offset: 0x25295, size: 0x8, addend: 0x0, symName: __ZZN3fmt3v106detail12format_floatIdEEiT_iNS1_11float_specsERNS1_6bufferIcEEENKUljPcE_clEjS8_, symObjAddr: 0x17938, symBinAddr: 0x10001B798, symSize: 0x2CC }
  - { offset: 0x25482, size: 0x8, addend: 0x0, symName: __ZN3fmt3v106detail11write_bytesILNS0_5align4typeE2EcNS0_8appenderEEET1_S6_NS0_17basic_string_viewIcEERKNS0_12format_specsIT0_EE, symObjAddr: 0x178F4, symBinAddr: 0x10001B754, symSize: 0x44 }
  - { offset: 0x25528, size: 0x8, addend: 0x0, symName: __ZZN3fmt3v106detail11write_bytesILNS0_5align4typeE2EcNS0_8appenderEEET1_S6_NS0_17basic_string_viewIcEERKNS0_12format_specsIT0_EEENKUlS5_E_clES5_, symObjAddr: 0x178AC, symBinAddr: 0x10001B70C, symSize: 0x48 }
  - { offset: 0x255A3, size: 0x8, addend: 0x0, symName: __ZN3fmt3v106detail15format_hexfloatIdLi0EEEvT_iNS1_11float_specsERNS1_6bufferIcEE, symObjAddr: 0x174D4, symBinAddr: 0x10001B334, symSize: 0x3D8 }
  - { offset: 0x25755, size: 0x8, addend: 0x0, symName: __ZN3fmt3v106detail13convert_floatIfEENSt11conditionalIXoosrSt7is_sameIT_fE5valueeqcl8num_bitsIS5_EEclL_ZNS1_8num_bitsIdEEivEEEdS5_E4typeES5_, symObjAddr: 0x174B8, symBinAddr: 0x10001B318, symSize: 0x1C }
  - { offset: 0x25788, size: 0x8, addend: 0x0, symName: __ZN3fmt3v106detail5isnanIfEEbT_, symObjAddr: 0x1748C, symBinAddr: 0x10001B2EC, symSize: 0x2C }
  - { offset: 0x257BB, size: 0x8, addend: 0x0, symName: __ZN3fmt3v106detail8isfiniteIfLi0EEEbT_, symObjAddr: 0x173F0, symBinAddr: 0x10001B250, symSize: 0x9C }
  - { offset: 0x25823, size: 0x8, addend: 0x0, symName: __ZN3fmt3v106detail8make_argINS0_20basic_format_contextINS0_8appenderEcEEfEENS0_16basic_format_argIT_EERT0_, symObjAddr: 0x173B0, symBinAddr: 0x10001B210, symSize: 0x40 }
  - { offset: 0x258D6, size: 0x8, addend: 0x0, symName: __ZN3fmt3v106detail18make_write_int_argIhEENS1_13write_int_argINSt11conditionalIXaalecl8num_bitsIT_EELi32EntLi0EEjNS4_IXlecl8num_bitsIS5_EELi64EEyoE4typeEE4typeEEES5_NS0_4sign4typeE, symObjAddr: 0x17304, symBinAddr: 0x10001B164, symSize: 0xAC }
  - { offset: 0x259AC, size: 0x8, addend: 0x0, symName: __ZN3fmt3v109loc_valueC1IhLi0EEET_, symObjAddr: 0x172D4, symBinAddr: 0x10001B134, symSize: 0x30 }
  - { offset: 0x259E0, size: 0x8, addend: 0x0, symName: __ZN3fmt3v106detail12write_paddedILNS0_5align4typeE1ENS0_8appenderEcZNS1_10write_charIcS5_EET0_S7_T_RKNS0_12format_specsIS8_EEEUlS5_E_EES7_S7_RKNS9_IT1_EEmOT2_, symObjAddr: 0x1729C, symBinAddr: 0x10001B0FC, symSize: 0x38 }
  - { offset: 0x25A63, size: 0x8, addend: 0x0, symName: __ZN3fmt3v106detail18write_escaped_charIcNS0_8appenderEEET0_S4_T_, symObjAddr: 0x17170, symBinAddr: 0x10001AFD0, symSize: 0x12C }
  - { offset: 0x25AB2, size: 0x8, addend: 0x0, symName: __ZN3fmt3v106detail8make_argINS0_20basic_format_contextINS0_8appenderEcEEoEENS0_16basic_format_argIT_EERT0_, symObjAddr: 0x17138, symBinAddr: 0x10001AF98, symSize: 0x38 }
  - { offset: 0x25FA0, size: 0x8, addend: 0x0, symName: __ZN3fmt3v106detail8make_argINS0_20basic_format_contextINS0_8appenderEcEEnEENS0_16basic_format_argIT_EERT0_, symObjAddr: 0x16FF8, symBinAddr: 0x10001AE58, symSize: 0x38 }
  - { offset: 0x26028, size: 0x8, addend: 0x0, symName: __ZN3fmt3v106detail8make_argINS0_20basic_format_contextINS0_8appenderEcEEyEENS0_16basic_format_argIT_EERT0_, symObjAddr: 0x16FBC, symBinAddr: 0x10001AE1C, symSize: 0x3C }
  - { offset: 0x26516, size: 0x8, addend: 0x0, symName: __ZN3fmt3v106detail8make_argINS0_20basic_format_contextINS0_8appenderEcEExEENS0_16basic_format_argIT_EERT0_, symObjAddr: 0x16E98, symBinAddr: 0x10001ACF8, symSize: 0x3C }
  - { offset: 0x2659E, size: 0x8, addend: 0x0, symName: __ZN3fmt3v106detail8make_argINS0_20basic_format_contextINS0_8appenderEcEEjEENS0_16basic_format_argIT_EERT0_, symObjAddr: 0x16E58, symBinAddr: 0x10001ACB8, symSize: 0x40 }
  - { offset: 0x26AB7, size: 0x8, addend: 0x0, symName: __ZN3fmt3v106detail8make_argINS0_20basic_format_contextINS0_8appenderEcEEiEENS0_16basic_format_argIT_EERT0_, symObjAddr: 0x16D30, symBinAddr: 0x10001AB90, symSize: 0x40 }
  - { offset: 0x26B6A, size: 0x8, addend: 0x0, symName: __ZSt20uninitialized_copy_nIPKcmPcET1_T_T0_S3_, symObjAddr: 0x16D00, symBinAddr: 0x10001AB60, symSize: 0x30 }
  - { offset: 0x26BF2, size: 0x8, addend: 0x0, symName: __ZN3fmt3v106detail12write_paddedILNS0_5align4typeE2ENS0_8appenderEcRZNS1_9write_ptrIcS5_mEET0_S7_T1_PKNS0_12format_specsIT_EEEUlS5_E_EES7_S7_RKNS9_IS8_EEmOT2_, symObjAddr: 0x16CC8, symBinAddr: 0x10001AB28, symSize: 0x38 }
  - { offset: 0x26C74, size: 0x8, addend: 0x0, symName: __ZN3fmt3v106detail11format_uintILj4EcNS0_8appenderEmEET1_S4_T2_ib, symObjAddr: 0x16C28, symBinAddr: 0x10001AA88, symSize: 0xA0 }
  - { offset: 0x26D2B, size: 0x8, addend: 0x0, symName: __ZN3fmt3v106detail12count_digitsILi4EmEEiT0_, symObjAddr: 0x16B98, symBinAddr: 0x10001A9F8, symSize: 0x90 }
  - { offset: 0x26D98, size: 0x8, addend: 0x0, symName: __ZZN3fmt3v106detail12count_digitsILi4EmEEiT0_ENKUlmE_clEm, symObjAddr: 0x16B48, symBinAddr: 0x10001A9A8, symSize: 0x50 }
  - { offset: 0x26E29, size: 0x8, addend: 0x0, symName: __ZN3fmt3v106detail14do_write_floatINS0_8appenderENS1_9dragonbox10decimal_fpIdEEcNS1_14digit_groupingIcEEEET_S9_RKT0_RKNS0_12format_specsIT1_EENS1_11float_specsENS1_10locale_refE, symObjAddr: 0x164F0, symBinAddr: 0x10001A350, symSize: 0x658 }
  - { offset: 0x26FDC, size: 0x8, addend: 0x0, symName: __ZZN3fmt3v106detail14do_write_floatINS0_8appenderENS1_9dragonbox10decimal_fpIdEEcNS1_14digit_groupingIcEEEET_S9_RKT0_RKNS0_12format_specsIT1_EENS1_11float_specsENS1_10locale_refEENKUlvE_clEv, symObjAddr: 0x15FDC, symBinAddr: 0x100019E3C, symSize: 0xA0 }
  - { offset: 0x2713C, size: 0x8, addend: 0x0, symName: __ZZN3fmt3v106detail14do_write_floatINS0_8appenderENS1_9dragonbox10decimal_fpIdEEcNS1_14digit_groupingIcEEEET_S9_RKT0_RKNS0_12format_specsIT1_EENS1_11float_specsENS1_10locale_refEENKUlS3_E2_clES3_, symObjAddr: 0x163B8, symBinAddr: 0x10001A218, symSize: 0x138 }
  - { offset: 0x2735C, size: 0x8, addend: 0x0, symName: __ZZN3fmt3v106detail14do_write_floatINS0_8appenderENS1_9dragonbox10decimal_fpIdEEcNS1_14digit_groupingIcEEEET_S9_RKT0_RKNS0_12format_specsIT1_EENS1_11float_specsENS1_10locale_refEENKUlS3_E_clES3_, symObjAddr: 0x1607C, symBinAddr: 0x100019EDC, symSize: 0x108 }
  - { offset: 0x274F7, size: 0x8, addend: 0x0, symName: __ZZN3fmt3v106detail14do_write_floatINS0_8appenderENS1_9dragonbox10decimal_fpIdEEcNS1_14digit_groupingIcEEEET_S9_RKT0_RKNS0_12format_specsIT1_EENS1_11float_specsENS1_10locale_refEENKUlS3_E0_clES3_, symObjAddr: 0x16184, symBinAddr: 0x100019FE4, symSize: 0x144 }
  - { offset: 0x27699, size: 0x8, addend: 0x0, symName: __ZZN3fmt3v106detail14do_write_floatINS0_8appenderENS1_9dragonbox10decimal_fpIdEEcNS1_14digit_groupingIcEEEET_S9_RKT0_RKNS0_12format_specsIT1_EENS1_11float_specsENS1_10locale_refEENKUlS3_E1_clES3_, symObjAddr: 0x162C8, symBinAddr: 0x10001A128, symSize: 0xF0 }
  - { offset: 0x27761, size: 0x8, addend: 0x0, symName: __ZN3fmt3v106detail14do_write_floatINS0_8appenderENS1_9dragonbox10decimal_fpIdEEcNS1_23fallback_digit_groupingIcEEEET_S9_RKT0_RKNS0_12format_specsIT1_EENS1_11float_specsENS1_10locale_refE, symObjAddr: 0x159E0, symBinAddr: 0x100019840, symSize: 0x5FC }
  - { offset: 0x27914, size: 0x8, addend: 0x0, symName: __ZZN3fmt3v106detail14do_write_floatINS0_8appenderENS1_9dragonbox10decimal_fpIdEEcNS1_23fallback_digit_groupingIcEEEET_S9_RKT0_RKNS0_12format_specsIT1_EENS1_11float_specsENS1_10locale_refEENKUlvE_clEv, symObjAddr: 0x154CC, symBinAddr: 0x10001932C, symSize: 0xA0 }
  - { offset: 0x27A74, size: 0x8, addend: 0x0, symName: __ZZN3fmt3v106detail14do_write_floatINS0_8appenderENS1_9dragonbox10decimal_fpIdEEcNS1_23fallback_digit_groupingIcEEEET_S9_RKT0_RKNS0_12format_specsIT1_EENS1_11float_specsENS1_10locale_refEENKUlS3_E2_clES3_, symObjAddr: 0x158A8, symBinAddr: 0x100019708, symSize: 0x138 }
  - { offset: 0x27C94, size: 0x8, addend: 0x0, symName: __ZZN3fmt3v106detail14do_write_floatINS0_8appenderENS1_9dragonbox10decimal_fpIdEEcNS1_23fallback_digit_groupingIcEEEET_S9_RKT0_RKNS0_12format_specsIT1_EENS1_11float_specsENS1_10locale_refEENKUlS3_E_clES3_, symObjAddr: 0x1556C, symBinAddr: 0x1000193CC, symSize: 0x108 }
  - { offset: 0x27E3B, size: 0x8, addend: 0x0, symName: __ZZN3fmt3v106detail14do_write_floatINS0_8appenderENS1_9dragonbox10decimal_fpIdEEcNS1_23fallback_digit_groupingIcEEEET_S9_RKT0_RKNS0_12format_specsIT1_EENS1_11float_specsENS1_10locale_refEENKUlS3_E0_clES3_, symObjAddr: 0x15674, symBinAddr: 0x1000194D4, symSize: 0x144 }
  - { offset: 0x27FE9, size: 0x8, addend: 0x0, symName: __ZZN3fmt3v106detail14do_write_floatINS0_8appenderENS1_9dragonbox10decimal_fpIdEEcNS1_23fallback_digit_groupingIcEEEET_S9_RKT0_RKNS0_12format_specsIT1_EENS1_11float_specsENS1_10locale_refEENKUlS3_E1_clES3_, symObjAddr: 0x157B8, symBinAddr: 0x100019618, symSize: 0xF0 }
  - { offset: 0x280B1, size: 0x8, addend: 0x0, symName: __ZN3fmt3v106detail9dragonbox38check_divisibility_and_divide_by_pow10ILi2EEEbRj, symObjAddr: 0x153F8, symBinAddr: 0x100019258, symSize: 0xD4 }
  - { offset: 0x280EC, size: 0x8, addend: 0x0, symName: _info.0, symObjAddr: 0x25130, symBinAddr: 0x10002C890, symSize: 0x0 }
  - { offset: 0x281B0, size: 0x8, addend: 0x0, symName: __ZN3fmt3v106detail14do_write_floatINS0_8appenderENS1_9dragonbox10decimal_fpIfEEcNS1_14digit_groupingIcEEEET_S9_RKT0_RKNS0_12format_specsIT1_EENS1_11float_specsENS1_10locale_refE, symObjAddr: 0x14DA0, symBinAddr: 0x100018C00, symSize: 0x658 }
  - { offset: 0x28363, size: 0x8, addend: 0x0, symName: __ZZN3fmt3v106detail14do_write_floatINS0_8appenderENS1_9dragonbox10decimal_fpIfEEcNS1_14digit_groupingIcEEEET_S9_RKT0_RKNS0_12format_specsIT1_EENS1_11float_specsENS1_10locale_refEENKUlvE_clEv, symObjAddr: 0x1488C, symBinAddr: 0x1000186EC, symSize: 0xA0 }
  - { offset: 0x284C3, size: 0x8, addend: 0x0, symName: __ZZN3fmt3v106detail14do_write_floatINS0_8appenderENS1_9dragonbox10decimal_fpIfEEcNS1_14digit_groupingIcEEEET_S9_RKT0_RKNS0_12format_specsIT1_EENS1_11float_specsENS1_10locale_refEENKUlS3_E2_clES3_, symObjAddr: 0x14C68, symBinAddr: 0x100018AC8, symSize: 0x138 }
  - { offset: 0x286E3, size: 0x8, addend: 0x0, symName: __ZZN3fmt3v106detail14do_write_floatINS0_8appenderENS1_9dragonbox10decimal_fpIfEEcNS1_14digit_groupingIcEEEET_S9_RKT0_RKNS0_12format_specsIT1_EENS1_11float_specsENS1_10locale_refEENKUlS3_E_clES3_, symObjAddr: 0x1492C, symBinAddr: 0x10001878C, symSize: 0x108 }
  - { offset: 0x2887E, size: 0x8, addend: 0x0, symName: __ZZN3fmt3v106detail14do_write_floatINS0_8appenderENS1_9dragonbox10decimal_fpIfEEcNS1_14digit_groupingIcEEEET_S9_RKT0_RKNS0_12format_specsIT1_EENS1_11float_specsENS1_10locale_refEENKUlS3_E0_clES3_, symObjAddr: 0x14A34, symBinAddr: 0x100018894, symSize: 0x144 }
  - { offset: 0x28A20, size: 0x8, addend: 0x0, symName: __ZZN3fmt3v106detail14do_write_floatINS0_8appenderENS1_9dragonbox10decimal_fpIfEEcNS1_14digit_groupingIcEEEET_S9_RKT0_RKNS0_12format_specsIT1_EENS1_11float_specsENS1_10locale_refEENKUlS3_E1_clES3_, symObjAddr: 0x14B78, symBinAddr: 0x1000189D8, symSize: 0xF0 }
  - { offset: 0x28AE8, size: 0x8, addend: 0x0, symName: __ZN3fmt3v106detail14do_write_floatINS0_8appenderENS1_9dragonbox10decimal_fpIfEEcNS1_23fallback_digit_groupingIcEEEET_S9_RKT0_RKNS0_12format_specsIT1_EENS1_11float_specsENS1_10locale_refE, symObjAddr: 0x14290, symBinAddr: 0x1000180F0, symSize: 0x5FC }
  - { offset: 0x28C9B, size: 0x8, addend: 0x0, symName: __ZZN3fmt3v106detail14do_write_floatINS0_8appenderENS1_9dragonbox10decimal_fpIfEEcNS1_23fallback_digit_groupingIcEEEET_S9_RKT0_RKNS0_12format_specsIT1_EENS1_11float_specsENS1_10locale_refEENKUlvE_clEv, symObjAddr: 0x13D7C, symBinAddr: 0x100017BDC, symSize: 0xA0 }
  - { offset: 0x28DFB, size: 0x8, addend: 0x0, symName: __ZZN3fmt3v106detail14do_write_floatINS0_8appenderENS1_9dragonbox10decimal_fpIfEEcNS1_23fallback_digit_groupingIcEEEET_S9_RKT0_RKNS0_12format_specsIT1_EENS1_11float_specsENS1_10locale_refEENKUlS3_E2_clES3_, symObjAddr: 0x14158, symBinAddr: 0x100017FB8, symSize: 0x138 }
  - { offset: 0x2901B, size: 0x8, addend: 0x0, symName: __ZZN3fmt3v106detail14do_write_floatINS0_8appenderENS1_9dragonbox10decimal_fpIfEEcNS1_23fallback_digit_groupingIcEEEET_S9_RKT0_RKNS0_12format_specsIT1_EENS1_11float_specsENS1_10locale_refEENKUlS3_E_clES3_, symObjAddr: 0x13E1C, symBinAddr: 0x100017C7C, symSize: 0x108 }
  - { offset: 0x291C2, size: 0x8, addend: 0x0, symName: __ZZN3fmt3v106detail14do_write_floatINS0_8appenderENS1_9dragonbox10decimal_fpIfEEcNS1_23fallback_digit_groupingIcEEEET_S9_RKT0_RKNS0_12format_specsIT1_EENS1_11float_specsENS1_10locale_refEENKUlS3_E0_clES3_, symObjAddr: 0x13F24, symBinAddr: 0x100017D84, symSize: 0x144 }
  - { offset: 0x29370, size: 0x8, addend: 0x0, symName: __ZZN3fmt3v106detail14do_write_floatINS0_8appenderENS1_9dragonbox10decimal_fpIfEEcNS1_23fallback_digit_groupingIcEEEET_S9_RKT0_RKNS0_12format_specsIT1_EENS1_11float_specsENS1_10locale_refEENKUlS3_E1_clES3_, symObjAddr: 0x14068, symBinAddr: 0x100017EC8, symSize: 0xF0 }
  - { offset: 0x29438, size: 0x8, addend: 0x0, symName: __ZN3fmt3v106detail9dragonbox38check_divisibility_and_divide_by_pow10ILi1EEEbRj, symObjAddr: 0x13CA4, symBinAddr: 0x100017B04, symSize: 0xD8 }
  - { offset: 0x29473, size: 0x8, addend: 0x0, symName: _info.1, symObjAddr: 0x25138, symBinAddr: 0x10002C898, symSize: 0x0 }
  - { offset: 0x29537, size: 0x8, addend: 0x0, symName: __ZN3fmt3v106detail12write_paddedILNS0_5align4typeE1ENS0_8appenderEcZNS1_15write_nonfiniteIcS5_EET0_S7_bNS0_12format_specsIT_EERKNS1_11float_specsEEUlS5_E_EES7_S7_RKNS8_IT1_EEmOT2_, symObjAddr: 0x13C6C, symBinAddr: 0x100017ACC, symSize: 0x38 }
  - { offset: 0x295BA, size: 0x8, addend: 0x0, symName: __ZN3fmt3v106detail4signIcNS0_4sign4typeEEET_T0_, symObjAddr: 0x13C48, symBinAddr: 0x100017AA8, symSize: 0x24 }
  - { offset: 0x295F6, size: 0x8, addend: 0x0, symName: __ZN3fmt3v106detail12write_paddedILNS0_5align4typeE1ENS0_8appenderEcZNS1_11write_bytesILS4_1EcS5_EET1_S7_NS0_17basic_string_viewIcEERKNS0_12format_specsIT0_EEEUlS5_E_EESB_SB_RKNSA_IS7_EEmOT2_, symObjAddr: 0x13C10, symBinAddr: 0x100017A70, symSize: 0x38 }
  - { offset: 0x29678, size: 0x8, addend: 0x0, symName: __ZN3fmt3v106detail17copy_str_noinlineIcPcNS0_8appenderEEET1_T0_S6_S5_, symObjAddr: 0x13BE4, symBinAddr: 0x100017A44, symSize: 0x2C }
  - { offset: 0x2970B, size: 0x8, addend: 0x0, symName: __ZN3fmt3v106detail7arg_refIcEC1ENS0_17basic_string_viewIcEE, symObjAddr: 0x13BC8, symBinAddr: 0x100017A28, symSize: 0x1C }
  - { offset: 0x2973E, size: 0x8, addend: 0x0, symName: __ZN3fmt3v106detail4fillINS0_8appenderEcEET_S4_mRKNS1_6fill_tIT0_EE, symObjAddr: 0x13B20, symBinAddr: 0x100017980, symSize: 0xA8 }
  - { offset: 0x297E6, size: 0x8, addend: 0x0, symName: __ZN3fmt3v106detail6bufferIiEixIiEERiT_, symObjAddr: 0x13B14, symBinAddr: 0x100017974, symSize: 0xC }
  - { offset: 0x2982A, size: 0x8, addend: 0x0, symName: __ZN3fmt3v106detail6bufferIiE9push_backERKi, symObjAddr: 0x13AD0, symBinAddr: 0x100017930, symSize: 0x44 }
  - { offset: 0x2988B, size: 0x8, addend: 0x0, symName: __ZN3fmt3v1019basic_memory_bufferIiLm500ESaIiEED1Ev, symObjAddr: 0x13A84, symBinAddr: 0x1000178E4, symSize: 0x4C }
  - { offset: 0x298FD, size: 0x8, addend: 0x0, symName: __ZN3fmt3v1019basic_memory_bufferIiLm500ESaIiEEC1ERKS2_, symObjAddr: 0x139C4, symBinAddr: 0x100017824, symSize: 0xC0 }
  - { offset: 0x299E1, size: 0x8, addend: 0x0, symName: __ZSt4moveIRcEONSt16remove_referenceIT_E4typeEOS2_, symObjAddr: 0x139B0, symBinAddr: 0x100017810, symSize: 0x14 }
  - { offset: 0x29A17, size: 0x8, addend: 0x0, symName: __ZNK3fmt3v106detail14digit_groupingIcE4nextERNS3_10next_stateE, symObjAddr: 0x13894, symBinAddr: 0x1000176F4, symSize: 0x11C }
  - { offset: 0x29A52, size: 0x8, addend: 0x0, symName: __ZNK3fmt3v106detail14digit_groupingIcE13initial_stateEv, symObjAddr: 0x13858, symBinAddr: 0x1000176B8, symSize: 0x3C }
  - { offset: 0x29A7C, size: 0x8, addend: 0x0, symName: __ZNSt15__new_allocatorIcE8allocateEmPKv, symObjAddr: 0x137F4, symBinAddr: 0x100017654, symSize: 0x64 }
  - { offset: 0x29AEE, size: 0x8, addend: 0x0, symName: __ZSt9__fill_a1IPjiEN9__gnu_cxx11__enable_ifIXsrSt11__is_scalarIT0_E7__valueEvE6__typeET_S8_RKS4_, symObjAddr: 0x1379C, symBinAddr: 0x1000175FC, symSize: 0x58 }
  - { offset: 0x29B65, size: 0x8, addend: 0x0, symName: __ZNSt9_Any_data9_M_accessIPFvvEEERT_v, symObjAddr: 0x13780, symBinAddr: 0x1000175E0, symSize: 0x1C }
  - { offset: 0x29B94, size: 0x8, addend: 0x0, symName: __ZNSt14_Function_base13_Base_managerIPFvvEE9_M_createIRKS2_EEvRSt9_Any_dataOT_St17integral_constantIbLb1EE, symObjAddr: 0x13730, symBinAddr: 0x100017590, symSize: 0x50 }
  - { offset: 0x29BE9, size: 0x8, addend: 0x0, symName: __ZSt7forwardIRKPFvvEEOT_RNSt16remove_referenceIS4_E4typeE, symObjAddr: 0x1371C, symBinAddr: 0x10001757C, symSize: 0x14 }
  - { offset: 0x29C1F, size: 0x8, addend: 0x0, symName: __ZNSt9_Any_data9_M_accessIZN15fsm_definitions18exception_handling25with_exceptions_displayedERKSt8functionIFvvEEEUlRKSt9exceptionE_EERT_v, symObjAddr: 0x13700, symBinAddr: 0x100017560, symSize: 0x1C }
  - { offset: 0x29C4E, size: 0x8, addend: 0x0, symName: __ZNSt14_Function_base13_Base_managerIZN15fsm_definitions18exception_handling25with_exceptions_displayedERKSt8functionIFvvEEEUlRKSt9exceptionE_E9_M_createIRKSB_EEvRSt9_Any_dataOT_St17integral_constantIbLb1EE, symObjAddr: 0x136B0, symBinAddr: 0x100017510, symSize: 0x50 }
  - { offset: 0x29C9F, size: 0x8, addend: 0x0, symName: __ZSt7forwardIRKZN15fsm_definitions18exception_handling25with_exceptions_displayedERKSt8functionIFvvEEEUlRKSt9exceptionE_EOT_RNSt16remove_referenceISD_E4typeE, symObjAddr: 0x1369C, symBinAddr: 0x1000174FC, symSize: 0x14 }
  - { offset: 0x29D06, size: 0x8, addend: 0x0, symName: __ZN3fmt3v1017basic_string_viewIcEC1ISt17basic_string_viewIcSt11char_traitsIcEELi0EEET_, symObjAddr: 0x13660, symBinAddr: 0x1000174C0, symSize: 0x3C }
  - { offset: 0x29D7A, size: 0x8, addend: 0x0, symName: __ZN3fmt3v1017basic_string_viewIcEC1ISt11char_traitsIcESaIcEEERKNSt7__cxx1112basic_stringIcT_T0_EE, symObjAddr: 0x13628, symBinAddr: 0x100017488, symSize: 0x38 }
  - { offset: 0x29DCF, size: 0x8, addend: 0x0, symName: __ZN3fmt3v106detail15do_parse_arg_idIcRZNS1_23parse_replacement_fieldIcRZNS1_10vformat_toIcEEvRNS1_6bufferIT_EENS0_17basic_string_viewIS6_EENS1_12vformat_argsIS6_E4typeENS1_10locale_refEE14format_handlerEEPKS6_SI_SI_OT0_E10id_adapterEESI_SI_SI_SK_, symObjAddr: 0x134F0, symBinAddr: 0x100017350, symSize: 0x138 }
  - { offset: 0x29E8B, size: 0x8, addend: 0x0, symName: __ZN3fmt3v106detail5writeIcNS0_8appenderEEET0_S4_NS0_17basic_string_viewIT_EERKNS0_12format_specsIS6_EE, symObjAddr: 0x133A0, symBinAddr: 0x100017200, symSize: 0x150 }
  - { offset: 0x29F98, size: 0x8, addend: 0x0, symName: __ZZN3fmt3v106detail5writeIcNS0_8appenderEEET0_S4_NS0_17basic_string_viewIT_EERKNS0_12format_specsIS6_EEENKUlS3_E_clES3_, symObjAddr: 0x13330, symBinAddr: 0x100017190, symSize: 0x70 }
  - { offset: 0x2A01F, size: 0x8, addend: 0x0, symName: __ZN3fmt3v106detail8bit_castImPKcLi0EEET_RKT0_, symObjAddr: 0x1330C, symBinAddr: 0x10001716C, symSize: 0x24 }
  - { offset: 0x2A06C, size: 0x8, addend: 0x0, symName: __ZN3fmt3v106detail11write_floatIcNS0_8appenderEeEET0_S4_T1_NS0_12format_specsIT_EENS1_10locale_refE, symObjAddr: 0x12F04, symBinAddr: 0x100016D64, symSize: 0x408 }
  - { offset: 0x2A2C8, size: 0x8, addend: 0x0, symName: __ZN3fmt3v109loc_valueC1IeLi0EEET_, symObjAddr: 0x12ED8, symBinAddr: 0x100016D38, symSize: 0x2C }
  - { offset: 0x2A2FC, size: 0x8, addend: 0x0, symName: __ZN3fmt3v106detail11write_floatIcNS0_8appenderEdEET0_S4_T1_NS0_12format_specsIT_EENS1_10locale_refE, symObjAddr: 0x12AD0, symBinAddr: 0x100016930, symSize: 0x408 }
  - { offset: 0x2A558, size: 0x8, addend: 0x0, symName: __ZN3fmt3v109loc_valueC1IdLi0EEET_, symObjAddr: 0x12AA4, symBinAddr: 0x100016904, symSize: 0x2C }
  - { offset: 0x2A58C, size: 0x8, addend: 0x0, symName: __ZN3fmt3v106detail11write_floatIcNS0_8appenderEfEET0_S4_T1_NS0_12format_specsIT_EENS1_10locale_refE, symObjAddr: 0x12690, symBinAddr: 0x1000164F0, symSize: 0x414 }
  - { offset: 0x2A7B9, size: 0x8, addend: 0x0, symName: __ZN3fmt3v106detail21parse_float_type_specINS1_13error_handlerEcEENS1_11float_specsERKNS0_12format_specsIT0_EEOT_, symObjAddr: 0x124B8, symBinAddr: 0x100016318, symSize: 0x1D8 }
  - { offset: 0x2A84C, size: 0x8, addend: 0x0, symName: __ZN3fmt3v109loc_valueC1IfLi0EEET_, symObjAddr: 0x1248C, symBinAddr: 0x1000162EC, symSize: 0x2C }
  - { offset: 0x2A8DB, size: 0x8, addend: 0x0, symName: __ZN3fmt3v106detail10write_charIcNS0_8appenderEEET0_S4_T_RKNS0_12format_specsIS5_EE, symObjAddr: 0x12430, symBinAddr: 0x100016290, symSize: 0x5C }
  - { offset: 0x2A996, size: 0x8, addend: 0x0, symName: __ZZN3fmt3v106detail10write_charIcNS0_8appenderEEET0_S4_T_RKNS0_12format_specsIS5_EEENKUlS3_E_clES3_, symObjAddr: 0x123B8, symBinAddr: 0x100016218, symSize: 0x78 }
  - { offset: 0x2AA32, size: 0x8, addend: 0x0, symName: __ZN3fmt3v109loc_valueC1IoLi0EEET_, symObjAddr: 0x1238C, symBinAddr: 0x1000161EC, symSize: 0x2C }
  - { offset: 0x2AA66, size: 0x8, addend: 0x0, symName: __ZN3fmt3v106detail18write_int_noinlineIcNS0_8appenderEoEET0_S4_NS1_13write_int_argIT1_EERKNS0_12format_specsIT_EENS1_10locale_refE, symObjAddr: 0x11B48, symBinAddr: 0x1000159A8, symSize: 0x844 }
  - { offset: 0x2AE61, size: 0x8, addend: 0x0, symName: __ZN3fmt3v109loc_valueC1InLi0EEET_, symObjAddr: 0x11B1C, symBinAddr: 0x10001597C, symSize: 0x2C }
  - { offset: 0x2AECA, size: 0x8, addend: 0x0, symName: __ZN3fmt3v109loc_valueC1IyLi0EEET_, symObjAddr: 0x11AF0, symBinAddr: 0x100015950, symSize: 0x2C }
  - { offset: 0x2AEFE, size: 0x8, addend: 0x0, symName: __ZN3fmt3v106detail18write_int_noinlineIcNS0_8appenderEyEET0_S4_NS1_13write_int_argIT1_EERKNS0_12format_specsIT_EENS1_10locale_refE, symObjAddr: 0x1136C, symBinAddr: 0x1000151CC, symSize: 0x784 }
  - { offset: 0x2B2F7, size: 0x8, addend: 0x0, symName: __ZN3fmt3v109loc_valueC1IxLi0EEET_, symObjAddr: 0x11340, symBinAddr: 0x1000151A0, symSize: 0x2C }
  - { offset: 0x2B360, size: 0x8, addend: 0x0, symName: __ZN3fmt3v109loc_valueC1IjLi0EEET_, symObjAddr: 0x11314, symBinAddr: 0x100015174, symSize: 0x2C }
  - { offset: 0x2B394, size: 0x8, addend: 0x0, symName: __ZN3fmt3v106detail18write_int_noinlineIcNS0_8appenderEjEET0_S4_NS1_13write_int_argIT1_EERKNS0_12format_specsIT_EENS1_10locale_refE, symObjAddr: 0x10B80, symBinAddr: 0x1000149E0, symSize: 0x794 }
  - { offset: 0x2B78C, size: 0x8, addend: 0x0, symName: __ZN3fmt3v109loc_valueC1IiLi0EEET_, symObjAddr: 0x10B54, symBinAddr: 0x1000149B4, symSize: 0x2C }
  - { offset: 0x2B7C4, size: 0x8, addend: 0x0, symName: __ZN3fmt3v106detail17precision_checkerINS1_13error_handlerEEclINS0_9monostateELi0EEEyT_, symObjAddr: 0x10B2C, symBinAddr: 0x10001498C, symSize: 0x28 }
  - { offset: 0x2B800, size: 0x8, addend: 0x0, symName: __ZN3fmt3v106detail17precision_checkerINS1_13error_handlerEEclINS0_16basic_format_argINS0_20basic_format_contextINS0_8appenderEcEEE6handleELi0EEEyT_, symObjAddr: 0x10B04, symBinAddr: 0x100014964, symSize: 0x28 }
  - { offset: 0x2B83C, size: 0x8, addend: 0x0, symName: __ZN3fmt3v106detail17precision_checkerINS1_13error_handlerEEclIPKvLi0EEEyT_, symObjAddr: 0x10ADC, symBinAddr: 0x10001493C, symSize: 0x28 }
  - { offset: 0x2B878, size: 0x8, addend: 0x0, symName: __ZN3fmt3v106detail17precision_checkerINS1_13error_handlerEEclINS0_17basic_string_viewIcEELi0EEEyT_, symObjAddr: 0x10AB4, symBinAddr: 0x100014914, symSize: 0x28 }
  - { offset: 0x2B8B4, size: 0x8, addend: 0x0, symName: __ZN3fmt3v106detail17precision_checkerINS1_13error_handlerEEclIPKcLi0EEEyT_, symObjAddr: 0x10A8C, symBinAddr: 0x1000148EC, symSize: 0x28 }
  - { offset: 0x2B8F0, size: 0x8, addend: 0x0, symName: __ZN3fmt3v106detail17precision_checkerINS1_13error_handlerEEclIeLi0EEEyT_, symObjAddr: 0x10A64, symBinAddr: 0x1000148C4, symSize: 0x28 }
  - { offset: 0x2B92C, size: 0x8, addend: 0x0, symName: __ZN3fmt3v106detail17precision_checkerINS1_13error_handlerEEclIdLi0EEEyT_, symObjAddr: 0x10A3C, symBinAddr: 0x10001489C, symSize: 0x28 }
  - { offset: 0x2B968, size: 0x8, addend: 0x0, symName: __ZN3fmt3v106detail17precision_checkerINS1_13error_handlerEEclIfLi0EEEyT_, symObjAddr: 0x10A14, symBinAddr: 0x100014874, symSize: 0x28 }
  - { offset: 0x2B9A4, size: 0x8, addend: 0x0, symName: __ZN3fmt3v106detail17precision_checkerINS1_13error_handlerEEclIcLi0EEEyT_, symObjAddr: 0x109E8, symBinAddr: 0x100014848, symSize: 0x2C }
  - { offset: 0x2B9E0, size: 0x8, addend: 0x0, symName: __ZN3fmt3v106detail17precision_checkerINS1_13error_handlerEEclIbLi0EEEyT_, symObjAddr: 0x109BC, symBinAddr: 0x10001481C, symSize: 0x2C }
  - { offset: 0x2BA1C, size: 0x8, addend: 0x0, symName: __ZN3fmt3v106detail17precision_checkerINS1_13error_handlerEEclIoLi0EEEyT_, symObjAddr: 0x10974, symBinAddr: 0x1000147D4, symSize: 0x48 }
  - { offset: 0x2BA60, size: 0x8, addend: 0x0, symName: __ZN3fmt3v106detail17precision_checkerINS1_13error_handlerEEclInLi0EEEyT_, symObjAddr: 0x1092C, symBinAddr: 0x10001478C, symSize: 0x48 }
  - { offset: 0x2BAA4, size: 0x8, addend: 0x0, symName: __ZN3fmt3v106detail17precision_checkerINS1_13error_handlerEEclIyLi0EEEyT_, symObjAddr: 0x108E4, symBinAddr: 0x100014744, symSize: 0x48 }
  - { offset: 0x2BAE8, size: 0x8, addend: 0x0, symName: __ZN3fmt3v106detail17precision_checkerINS1_13error_handlerEEclIxLi0EEEyT_, symObjAddr: 0x1089C, symBinAddr: 0x1000146FC, symSize: 0x48 }
  - { offset: 0x2BB2C, size: 0x8, addend: 0x0, symName: __ZN3fmt3v106detail17precision_checkerINS1_13error_handlerEEclIjLi0EEEyT_, symObjAddr: 0x10854, symBinAddr: 0x1000146B4, symSize: 0x48 }
  - { offset: 0x2BB70, size: 0x8, addend: 0x0, symName: __ZN3fmt3v106detail17precision_checkerINS1_13error_handlerEEclIiLi0EEEyT_, symObjAddr: 0x1080C, symBinAddr: 0x10001466C, symSize: 0x48 }
  - { offset: 0x2BBB4, size: 0x8, addend: 0x0, symName: __ZNK3fmt3v1017basic_format_argsINS0_20basic_format_contextINS0_8appenderEcEEE3getIcEENS0_16basic_format_argIS4_EENS0_17basic_string_viewIT_EE, symObjAddr: 0x107C8, symBinAddr: 0x100014628, symSize: 0x44 }
  - { offset: 0x2BC0C, size: 0x8, addend: 0x0, symName: __ZN3fmt3v106detail13width_checkerINS1_13error_handlerEEclINS0_9monostateELi0EEEyT_, symObjAddr: 0x107A0, symBinAddr: 0x100014600, symSize: 0x28 }
  - { offset: 0x2BC48, size: 0x8, addend: 0x0, symName: __ZN3fmt3v106detail13width_checkerINS1_13error_handlerEEclINS0_16basic_format_argINS0_20basic_format_contextINS0_8appenderEcEEE6handleELi0EEEyT_, symObjAddr: 0x10778, symBinAddr: 0x1000145D8, symSize: 0x28 }
  - { offset: 0x2BC84, size: 0x8, addend: 0x0, symName: __ZN3fmt3v106detail13width_checkerINS1_13error_handlerEEclIPKvLi0EEEyT_, symObjAddr: 0x10750, symBinAddr: 0x1000145B0, symSize: 0x28 }
  - { offset: 0x2BCC0, size: 0x8, addend: 0x0, symName: __ZN3fmt3v106detail13width_checkerINS1_13error_handlerEEclINS0_17basic_string_viewIcEELi0EEEyT_, symObjAddr: 0x10728, symBinAddr: 0x100014588, symSize: 0x28 }
  - { offset: 0x2BCFC, size: 0x8, addend: 0x0, symName: __ZN3fmt3v106detail13width_checkerINS1_13error_handlerEEclIPKcLi0EEEyT_, symObjAddr: 0x10700, symBinAddr: 0x100014560, symSize: 0x28 }
  - { offset: 0x2BD38, size: 0x8, addend: 0x0, symName: __ZN3fmt3v106detail13width_checkerINS1_13error_handlerEEclIeLi0EEEyT_, symObjAddr: 0x106D8, symBinAddr: 0x100014538, symSize: 0x28 }
  - { offset: 0x2BD74, size: 0x8, addend: 0x0, symName: __ZN3fmt3v106detail13width_checkerINS1_13error_handlerEEclIdLi0EEEyT_, symObjAddr: 0x106B0, symBinAddr: 0x100014510, symSize: 0x28 }
  - { offset: 0x2BDB0, size: 0x8, addend: 0x0, symName: __ZN3fmt3v106detail13width_checkerINS1_13error_handlerEEclIfLi0EEEyT_, symObjAddr: 0x10688, symBinAddr: 0x1000144E8, symSize: 0x28 }
  - { offset: 0x2BDEC, size: 0x8, addend: 0x0, symName: __ZN3fmt3v106detail13width_checkerINS1_13error_handlerEEclIcLi0EEEyT_, symObjAddr: 0x1065C, symBinAddr: 0x1000144BC, symSize: 0x2C }
  - { offset: 0x2BE28, size: 0x8, addend: 0x0, symName: __ZN3fmt3v106detail13width_checkerINS1_13error_handlerEEclIbLi0EEEyT_, symObjAddr: 0x10630, symBinAddr: 0x100014490, symSize: 0x2C }
  - { offset: 0x2BE64, size: 0x8, addend: 0x0, symName: __ZN3fmt3v106detail13width_checkerINS1_13error_handlerEEclIoLi0EEEyT_, symObjAddr: 0x105E8, symBinAddr: 0x100014448, symSize: 0x48 }
  - { offset: 0x2BEA8, size: 0x8, addend: 0x0, symName: __ZN3fmt3v106detail13width_checkerINS1_13error_handlerEEclInLi0EEEyT_, symObjAddr: 0x105A0, symBinAddr: 0x100014400, symSize: 0x48 }
  - { offset: 0x2BEEC, size: 0x8, addend: 0x0, symName: __ZN3fmt3v106detail13width_checkerINS1_13error_handlerEEclIyLi0EEEyT_, symObjAddr: 0x10558, symBinAddr: 0x1000143B8, symSize: 0x48 }
  - { offset: 0x2BF30, size: 0x8, addend: 0x0, symName: __ZN3fmt3v106detail13width_checkerINS1_13error_handlerEEclIxLi0EEEyT_, symObjAddr: 0x10510, symBinAddr: 0x100014370, symSize: 0x48 }
  - { offset: 0x2BF74, size: 0x8, addend: 0x0, symName: __ZN3fmt3v106detail13width_checkerINS1_13error_handlerEEclIjLi0EEEyT_, symObjAddr: 0x104C8, symBinAddr: 0x100014328, symSize: 0x48 }
  - { offset: 0x2BFB8, size: 0x8, addend: 0x0, symName: __ZN3fmt3v106detail13width_checkerINS1_13error_handlerEEclIiLi0EEEyT_, symObjAddr: 0x10480, symBinAddr: 0x1000142E0, symSize: 0x48 }
  - { offset: 0x2BFFC, size: 0x8, addend: 0x0, symName: __ZNK3fmt3v1017basic_string_viewIcE7compareES2_, symObjAddr: 0x10428, symBinAddr: 0x100014288, symSize: 0x58 }
  - { offset: 0x2C05D, size: 0x8, addend: 0x0, symName: __ZN3fmt3v106detail6bufferIcE6appendIcEEvPKT_S7_, symObjAddr: 0x1038C, symBinAddr: 0x1000141EC, symSize: 0x9C }
  - { offset: 0x2C0DC, size: 0x8, addend: 0x0, symName: __ZN3fmt3v106detail13get_containerINS1_6bufferIcEEEERT_St20back_insert_iteratorIS5_E, symObjAddr: 0x1036C, symBinAddr: 0x1000141CC, symSize: 0x20 }
  - { offset: 0x2C1CD, size: 0x8, addend: 0x0, symName: __ZZN3fmt3v106detail13get_containerINS1_6bufferIcEEEERT_St20back_insert_iteratorIS5_EEN8accessorC1ES7_IS4_E, symObjAddr: 0x10364, symBinAddr: 0x1000141C4, symSize: 0x8 }
  - { offset: 0x2C1FE, size: 0x8, addend: 0x0, symName: __ZN3fmt3v106detail9write_ptrIcNS0_8appenderEmEET0_S4_T1_PKNS0_12format_specsIT_EE, symObjAddr: 0x102C8, symBinAddr: 0x100014128, symSize: 0x9C }
  - { offset: 0x2C338, size: 0x8, addend: 0x0, symName: __ZZN3fmt3v106detail9write_ptrIcNS0_8appenderEmEET0_S4_T1_PKNS0_12format_specsIT_EEENKUlS3_E_clES3_, symObjAddr: 0x10228, symBinAddr: 0x100014088, symSize: 0xA0 }
  - { offset: 0x2C3A0, size: 0x8, addend: 0x0, symName: __ZN3fmt3v106detail8bit_castImPKvLi0EEET_RKT0_, symObjAddr: 0x10204, symBinAddr: 0x100014064, symSize: 0x24 }
  - { offset: 0x2C3F3, size: 0x8, addend: 0x0, symName: __ZN3fmt3v106detail8bit_castIyeLi0EEET_RKT0_, symObjAddr: 0x101E0, symBinAddr: 0x100014040, symSize: 0x24 }
  - { offset: 0x2C470, size: 0x8, addend: 0x0, symName: __ZN3fmt3v106detail27is_supported_floating_pointIeEEbT_, symObjAddr: 0x10174, symBinAddr: 0x100013FD4, symSize: 0x6C }
  - { offset: 0x2C49B, size: 0x8, addend: 0x0, symName: __ZN3fmt3v106detail11write_floatINS0_8appenderENS1_9dragonbox10decimal_fpIdEEcEET_S7_RKT0_RKNS0_12format_specsIT1_EENS1_11float_specsENS1_10locale_refE, symObjAddr: 0x10100, symBinAddr: 0x100013F60, symSize: 0x74 }
  - { offset: 0x2C548, size: 0x8, addend: 0x0, symName: __ZN3fmt3v106detail9dragonbox10to_decimalIdEENS2_10decimal_fpIT_EES5_, symObjAddr: 0xF654, symBinAddr: 0x1000134B4, symSize: 0xAAC }
  - { offset: 0x2C958, size: 0x8, addend: 0x0, symName: __ZN3fmt3v106detail13exponent_biasIdEEiv, symObjAddr: 0xF624, symBinAddr: 0x100013484, symSize: 0x30 }
  - { offset: 0x2C980, size: 0x8, addend: 0x0, symName: __ZN3fmt3v106detail8bit_castIydLi0EEET_RKT0_, symObjAddr: 0xF600, symBinAddr: 0x100013460, symSize: 0x24 }
  - { offset: 0x2C9FD, size: 0x8, addend: 0x0, symName: __ZN3fmt3v106detail27is_supported_floating_pointIdEEbT_, symObjAddr: 0xF594, symBinAddr: 0x1000133F4, symSize: 0x6C }
  - { offset: 0x2CA28, size: 0x8, addend: 0x0, symName: __ZN3fmt3v106detail11write_floatINS0_8appenderENS1_9dragonbox10decimal_fpIfEEcEET_S7_RKT0_RKNS0_12format_specsIT1_EENS1_11float_specsENS1_10locale_refE, symObjAddr: 0xF520, symBinAddr: 0x100013380, symSize: 0x74 }
  - { offset: 0x2CAD5, size: 0x8, addend: 0x0, symName: __ZN3fmt3v106detail9dragonbox10to_decimalIfEENS2_10decimal_fpIT_EES5_, symObjAddr: 0xEE3C, symBinAddr: 0x100012C9C, symSize: 0x6E4 }
  - { offset: 0x2CDA7, size: 0x8, addend: 0x0, symName: __ZN3fmt3v106detail13exponent_biasIfEEiv, symObjAddr: 0xEE0C, symBinAddr: 0x100012C6C, symSize: 0x30 }
  - { offset: 0x2CDCF, size: 0x8, addend: 0x0, symName: __ZN3fmt3v106detail15write_nonfiniteIcNS0_8appenderEEET0_S4_bNS0_12format_specsIT_EERKNS1_11float_specsE, symObjAddr: 0xEC98, symBinAddr: 0x100012AF8, symSize: 0x174 }
  - { offset: 0x2CEF1, size: 0x8, addend: 0x0, symName: __ZZN3fmt3v106detail15write_nonfiniteIcNS0_8appenderEEET0_S4_bNS0_12format_specsIT_EERKNS1_11float_specsEENKUlS3_E_clES3_, symObjAddr: 0xEC10, symBinAddr: 0x100012A70, symSize: 0x88 }
  - { offset: 0x2CF6C, size: 0x8, addend: 0x0, symName: __ZNK3fmt3v106detail6fill_tIcE4dataEv, symObjAddr: 0xEC0C, symBinAddr: 0x100012A6C, symSize: 0x4 }
  - { offset: 0x2CF95, size: 0x8, addend: 0x0, symName: __ZNK3fmt3v106detail6fill_tIcE4sizeEv, symObjAddr: 0xEC04, symBinAddr: 0x100012A64, symSize: 0x8 }
  - { offset: 0x2CFC2, size: 0x8, addend: 0x0, symName: __ZN3fmt3v106detail8bit_castIjfLi0EEET_RKT0_, symObjAddr: 0xEBE0, symBinAddr: 0x100012A40, symSize: 0x24 }
  - { offset: 0x2D03F, size: 0x8, addend: 0x0, symName: __ZN3fmt3v106detail27is_supported_floating_pointIfEEbT_, symObjAddr: 0xEB74, symBinAddr: 0x1000129D4, symSize: 0x6C }
  - { offset: 0x2D06E, size: 0x8, addend: 0x0, symName: __ZNSt20back_insert_iteratorIN3fmt3v106detail6bufferIcEEEaSERKc, symObjAddr: 0xEB48, symBinAddr: 0x1000129A8, symSize: 0x2C }
  - { offset: 0x2D0A5, size: 0x8, addend: 0x0, symName: __ZN3fmt3v106detail11write_bytesILNS0_5align4typeE1EcNS0_8appenderEEET1_S6_NS0_17basic_string_viewIcEERKNS0_12format_specsIT0_EE, symObjAddr: 0xEB04, symBinAddr: 0x100012964, symSize: 0x44 }
  - { offset: 0x2D14C, size: 0x8, addend: 0x0, symName: __ZZN3fmt3v106detail11write_bytesILNS0_5align4typeE1EcNS0_8appenderEEET1_S6_NS0_17basic_string_viewIcEERKNS0_12format_specsIT0_EEENKUlS5_E_clES5_, symObjAddr: 0xEABC, symBinAddr: 0x10001291C, symSize: 0x48 }
  - { offset: 0x2D1C7, size: 0x8, addend: 0x0, symName: __ZN3fmt3v106detail14format_decimalIcoNS0_8appenderELi0EEENS1_21format_decimal_resultIT1_EES5_T0_i, symObjAddr: 0xEA48, symBinAddr: 0x1000128A8, symSize: 0x74 }
  - { offset: 0x2D25D, size: 0x8, addend: 0x0, symName: __ZN3fmt3v106detail14format_decimalIcyNS0_8appenderELi0EEENS1_21format_decimal_resultIT1_EES5_T0_i, symObjAddr: 0xE9E4, symBinAddr: 0x100012844, symSize: 0x64 }
  - { offset: 0x2D2F2, size: 0x8, addend: 0x0, symName: __ZN3fmt3v106detail14format_decimalIcjNS0_8appenderELi0EEENS1_21format_decimal_resultIT1_EES5_T0_i, symObjAddr: 0xE980, symBinAddr: 0x1000127E0, symSize: 0x64 }
  - { offset: 0x2D387, size: 0x8, addend: 0x0, symName: __ZN3fmt3v106detail10to_pointerIcEEPT_NSt11conditionalIXsrSt7is_sameIS3_cE5valueENS0_8appenderESt20back_insert_iteratorINS1_6bufferIS3_EEEE4typeEm, symObjAddr: 0xE8EC, symBinAddr: 0x10001274C, symSize: 0x94 }
  - { offset: 0x2D419, size: 0x8, addend: 0x0, symName: __ZN3fmt3v106detail7arg_refIcEC1Ei, symObjAddr: 0xE8D0, symBinAddr: 0x100012730, symSize: 0x1C }
  - { offset: 0x2D44A, size: 0x8, addend: 0x0, symName: __ZN3fmt3v106detail23dynamic_spec_id_handlerIcE7on_nameENS0_17basic_string_viewIcEE, symObjAddr: 0xE894, symBinAddr: 0x1000126F4, symSize: 0x3C }
  - { offset: 0x2D487, size: 0x8, addend: 0x0, symName: __ZN3fmt3v106detail23dynamic_spec_id_handlerIcE8on_indexEi, symObjAddr: 0xE840, symBinAddr: 0x1000126A0, symSize: 0x54 }
  - { offset: 0x2D4C0, size: 0x8, addend: 0x0, symName: __ZN3fmt3v106detail11is_negativeIoLi0EEEbT_, symObjAddr: 0xE82C, symBinAddr: 0x10001268C, symSize: 0x14 }
  - { offset: 0x2D4F1, size: 0x8, addend: 0x0, symName: __ZN3fmt3v106detail12write_paddedILNS0_5align4typeE2ENS0_8appenderEcZNS1_9write_intIS5_ocEET_S7_T0_jRKNS0_12format_specsIT1_EERKNS1_14digit_groupingISA_EEEUlS5_E_EES8_S8_SD_mmOT2_, symObjAddr: 0xE6E8, symBinAddr: 0x100012548, symSize: 0x144 }
  - { offset: 0x2D5ED, size: 0x8, addend: 0x0, symName: __ZN3fmt3v106detail14format_decimalIcoEENS1_21format_decimal_resultIPT_EES5_T0_i, symObjAddr: 0xE488, symBinAddr: 0x1000122E8, symSize: 0x260 }
  - { offset: 0x2D701, size: 0x8, addend: 0x0, symName: __ZN3fmt3v106detail11is_negativeInLi0EEEbT_, symObjAddr: 0xE468, symBinAddr: 0x1000122C8, symSize: 0x20 }
  - { offset: 0x2D734, size: 0x8, addend: 0x0, symName: __ZN3fmt3v106detail11is_negativeIyLi0EEEbT_, symObjAddr: 0xE454, symBinAddr: 0x1000122B4, symSize: 0x14 }
  - { offset: 0x2D75F, size: 0x8, addend: 0x0, symName: __ZN3fmt3v106detail11is_negativeIxLi0EEEbT_, symObjAddr: 0xE438, symBinAddr: 0x100012298, symSize: 0x1C }
  - { offset: 0x2D792, size: 0x8, addend: 0x0, symName: __ZN3fmt3v106detail11is_negativeIjLi0EEEbT_, symObjAddr: 0xE424, symBinAddr: 0x100012284, symSize: 0x14 }
  - { offset: 0x2D7BD, size: 0x8, addend: 0x0, symName: __ZN3fmt3v106detail12write_paddedILNS0_5align4typeE2ENS0_8appenderEcZNS1_9write_intIS5_ycEET_S7_T0_jRKNS0_12format_specsIT1_EERKNS1_14digit_groupingISA_EEEUlS5_E_EES8_S8_SD_mmOT2_, symObjAddr: 0xE2E0, symBinAddr: 0x100012140, symSize: 0x144 }
  - { offset: 0x2D8BD, size: 0x8, addend: 0x0, symName: __ZNK3fmt3v106detail14digit_groupingIcE5applyINS0_8appenderEcEET_S6_NS0_17basic_string_viewIT0_EE, symObjAddr: 0xE0E0, symBinAddr: 0x100011F40, symSize: 0x200 }
  - { offset: 0x2DA27, size: 0x8, addend: 0x0, symName: __ZNK3fmt3v106detail6bufferIiE4sizeEv, symObjAddr: 0xE0D8, symBinAddr: 0x100011F38, symSize: 0x8 }
  - { offset: 0x2DA52, size: 0x8, addend: 0x0, symName: __ZNSt20back_insert_iteratorIN3fmt3v106detail6bufferIcEEEaSEOc, symObjAddr: 0xE098, symBinAddr: 0x100011EF8, symSize: 0x40 }
  - { offset: 0x2DA8D, size: 0x8, addend: 0x0, symName: __ZNSt20back_insert_iteratorIN3fmt3v106detail6bufferIcEEEdeEv, symObjAddr: 0xE084, symBinAddr: 0x100011EE4, symSize: 0x14 }
  - { offset: 0x2DAB7, size: 0x8, addend: 0x0, symName: __ZNK3fmt3v106detail14digit_groupingIcE16count_separatorsEi, symObjAddr: 0xE018, symBinAddr: 0x100011E78, symSize: 0x6C }
  - { offset: 0x2DB34, size: 0x8, addend: 0x0, symName: __ZSt8__fill_aIPjiEvT_S1_RKT0_, symObjAddr: 0xDFE8, symBinAddr: 0x100011E48, symSize: 0x30 }
  - { offset: 0x2DB92, size: 0x8, addend: 0x0, symName: __ZNSt14_Function_base13_Base_managerIPFvvEE10_M_destroyERSt9_Any_dataSt17integral_constantIbLb1EE, symObjAddr: 0xDFC4, symBinAddr: 0x100011E24, symSize: 0x24 }
  - { offset: 0x2DBC4, size: 0x8, addend: 0x0, symName: __ZNSt14_Function_base13_Base_managerIPFvvEE15_M_init_functorIRKS2_EEvRSt9_Any_dataOT_, symObjAddr: 0xDF88, symBinAddr: 0x100011DE8, symSize: 0x3C }
  - { offset: 0x2DC06, size: 0x8, addend: 0x0, symName: __ZSt13__invoke_implIvRPFvvEJEET_St14__invoke_otherOT0_DpOT1_, symObjAddr: 0xDF5C, symBinAddr: 0x100011DBC, symSize: 0x2C }
  - { offset: 0x2DC5A, size: 0x8, addend: 0x0, symName: __ZSt7forwardIRPFvvEEOT_RNSt16remove_referenceIS3_E4typeE, symObjAddr: 0xDF48, symBinAddr: 0x100011DA8, symSize: 0x14 }
  - { offset: 0x2DC96, size: 0x8, addend: 0x0, symName: __ZSt11__addressofIKPFvvEEPT_RS3_, symObjAddr: 0xDF34, symBinAddr: 0x100011D94, symSize: 0x14 }
  - { offset: 0x2DCD0, size: 0x8, addend: 0x0, symName: __ZNKSt9_Any_data9_M_accessIPFvvEEERKT_v, symObjAddr: 0xDF18, symBinAddr: 0x100011D78, symSize: 0x1C }
  - { offset: 0x2DE13, size: 0x8, addend: 0x0, symName: __ZNSt14_Function_base13_Base_managerIZN15fsm_definitions18exception_handling25with_exceptions_displayedERKSt8functionIFvvEEEUlRKSt9exceptionE_E10_M_destroyERSt9_Any_dataSt17integral_constantIbLb1EE, symObjAddr: 0xDEF4, symBinAddr: 0x100011D54, symSize: 0x24 }
  - { offset: 0x2DE45, size: 0x8, addend: 0x0, symName: __ZNSt14_Function_base13_Base_managerIZN15fsm_definitions18exception_handling25with_exceptions_displayedERKSt8functionIFvvEEEUlRKSt9exceptionE_E15_M_init_functorIRKSB_EEvRSt9_Any_dataOT_, symObjAddr: 0xDEB8, symBinAddr: 0x100011D18, symSize: 0x3C }
  - { offset: 0x2DE87, size: 0x8, addend: 0x0, symName: __ZSt13__invoke_implIvRZN15fsm_definitions18exception_handling25with_exceptions_displayedERKSt8functionIFvvEEEUlRKSt9exceptionE_JS9_EET_St14__invoke_otherOT0_DpOT1_, symObjAddr: 0xDE70, symBinAddr: 0x100011CD0, symSize: 0x48 }
  - { offset: 0x2DEE7, size: 0x8, addend: 0x0, symName: __ZSt7forwardIRZN15fsm_definitions18exception_handling25with_exceptions_displayedERKSt8functionIFvvEEEUlRKSt9exceptionE_EOT_RNSt16remove_referenceISC_E4typeE, symObjAddr: 0xDE5C, symBinAddr: 0x100011CBC, symSize: 0x14 }
  - { offset: 0x2DF19, size: 0x8, addend: 0x0, symName: __ZSt11__addressofIKZN15fsm_definitions18exception_handling25with_exceptions_displayedERKSt8functionIFvvEEEUlRKSt9exceptionE_EPT_RSC_, symObjAddr: 0xDE48, symBinAddr: 0x100011CA8, symSize: 0x14 }
  - { offset: 0x2DF4F, size: 0x8, addend: 0x0, symName: __ZNKSt9_Any_data9_M_accessIZN15fsm_definitions18exception_handling25with_exceptions_displayedERKSt8functionIFvvEEEUlRKSt9exceptionE_EERKT_v, symObjAddr: 0xDE2C, symBinAddr: 0x100011C8C, symSize: 0x1C }
  - { offset: 0x2E01C, size: 0x8, addend: 0x0, symName: __ZN3fmt3v106detail14to_string_viewIcLi0EEENS0_17basic_string_viewIT_EESt17basic_string_viewIS4_St11char_traitsIS4_EE, symObjAddr: 0xDE08, symBinAddr: 0x100011C68, symSize: 0x24 }
  - { offset: 0x2E0AC, size: 0x8, addend: 0x0, symName: __ZN3fmt3v106detail14to_string_viewIcSt11char_traitsIcESaIcEEENS0_17basic_string_viewIT_EERKNSt7__cxx1112basic_stringIS7_T0_T1_EE, symObjAddr: 0xDDE8, symBinAddr: 0x100011C48, symSize: 0x20 }
  - { offset: 0x2E15A, size: 0x8, addend: 0x0, symName: __ZN3fmt3v106detail5writeIcNS0_8appenderEEET0_S4_NS0_17basic_string_viewINS0_13type_identityIT_E4typeEEERKNS0_12format_specsIS7_EENS1_10locale_refE, symObjAddr: 0xDDB8, symBinAddr: 0x100011C18, symSize: 0x30 }
  - { offset: 0x2E1C1, size: 0x8, addend: 0x0, symName: __ZN3fmt3v106detail5writeIcNS0_8appenderEEET0_S4_PKT_RKNS0_12format_specsIS5_EENS1_10locale_refE, symObjAddr: 0xDD30, symBinAddr: 0x100011B90, symSize: 0x88 }
  - { offset: 0x2E273, size: 0x8, addend: 0x0, symName: __ZN3fmt3v106detail5writeIcNS0_8appenderEeLi0EEET0_S4_T1_NS0_12format_specsIT_EENS1_10locale_refE, symObjAddr: 0xDC4C, symBinAddr: 0x100011AAC, symSize: 0xE4 }
  - { offset: 0x2E311, size: 0x8, addend: 0x0, symName: __ZN3fmt3v106detail5writeIcNS0_8appenderEdLi0EEET0_S4_T1_NS0_12format_specsIT_EENS1_10locale_refE, symObjAddr: 0xDB68, symBinAddr: 0x1000119C8, symSize: 0xE4 }
  - { offset: 0x2E3AF, size: 0x8, addend: 0x0, symName: __ZN3fmt3v106detail5writeIcNS0_8appenderEfLi0EEET0_S4_T1_NS0_12format_specsIT_EENS1_10locale_refE, symObjAddr: 0xDA84, symBinAddr: 0x1000118E4, symSize: 0xE4 }
  - { offset: 0x2E44D, size: 0x8, addend: 0x0, symName: __ZN3fmt3v106detail5writeIcNS0_8appenderEEET0_S4_T_RKNS0_12format_specsIS5_EENS1_10locale_refE, symObjAddr: 0xD958, symBinAddr: 0x1000117B8, symSize: 0x12C }
  - { offset: 0x2E79E, size: 0x8, addend: 0x0, symName: __ZN3fmt3v106detail17precision_checkerINS1_13error_handlerEEC1ERS3_, symObjAddr: 0xD934, symBinAddr: 0x100011794, symSize: 0x24 }
  - { offset: 0x2E7CD, size: 0x8, addend: 0x0, symName: __ZN3fmt3v1020basic_format_contextINS0_8appenderEcE3argENS0_17basic_string_viewIcEE, symObjAddr: 0xD91C, symBinAddr: 0x10001177C, symSize: 0x18 }
  - { offset: 0x2E870, size: 0x8, addend: 0x0, symName: __ZN3fmt3v106detail13width_checkerINS1_13error_handlerEEC1ERS3_, symObjAddr: 0xD8F8, symBinAddr: 0x100011758, symSize: 0x24 }
  - { offset: 0x2E89B, size: 0x8, addend: 0x0, symName: __ZN3fmt3v10eqENS0_17basic_string_viewIcEES2_, symObjAddr: 0xD8CC, symBinAddr: 0x10001172C, symSize: 0x2C }
  - { offset: 0x2E8DC, size: 0x8, addend: 0x0, symName: __ZNK3fmt3v1017basic_format_argsINS0_20basic_format_contextINS0_8appenderEcEEE14has_named_argsEv, symObjAddr: 0xD8C0, symBinAddr: 0x100011720, symSize: 0xC }
  - { offset: 0x2E903, size: 0x8, addend: 0x0, symName: __ZN3fmt3v106detail8copy_strIcPKcEENS0_8appenderET0_S6_S5_, symObjAddr: 0xD87C, symBinAddr: 0x1000116DC, symSize: 0x44 }
  - { offset: 0x2E964, size: 0x8, addend: 0x0, symName: __ZN3fmt3v106detail5writeIcNS0_8appenderEEET0_S4_NS0_9monostateENS0_12format_specsIT_EENS1_10locale_refE, symObjAddr: 0xD840, symBinAddr: 0x1000116A0, symSize: 0x3C }
  - { offset: 0x2E9BF, size: 0x8, addend: 0x0, symName: __ZNK3fmt3v1016basic_format_argINS0_20basic_format_contextINS0_8appenderEcEEE6handle6formatERNS0_26basic_format_parse_contextIcEERS4_, symObjAddr: 0xD824, symBinAddr: 0x100011684, symSize: 0x1C }
  - { offset: 0x2EA0A, size: 0x8, addend: 0x0, symName: __ZN3fmt3v106detail5writeIcNS0_8appenderEvLi0EEET0_S4_PKT1_RKNS0_12format_specsIT_EENS1_10locale_refE, symObjAddr: 0xD7EC, symBinAddr: 0x10001164C, symSize: 0x38 }
  - { offset: 0x2EA76, size: 0x8, addend: 0x0, symName: __ZN3fmt3v106detail5writeIcNS0_8appenderEEET0_S4_PKT_, symObjAddr: 0xD78C, symBinAddr: 0x1000115EC, symSize: 0x60 }
  - { offset: 0x2EAED, size: 0x8, addend: 0x0, symName: __ZN3fmt3v106detail5writeIcNS0_8appenderEeLi0EEET0_S4_T1_, symObjAddr: 0xD558, symBinAddr: 0x1000113B8, symSize: 0x234 }
  - { offset: 0x2EC98, size: 0x8, addend: 0x0, symName: __ZN3fmt3v106detail5writeIcNS0_8appenderEdLi0EEET0_S4_T1_, symObjAddr: 0xD324, symBinAddr: 0x100011184, symSize: 0x234 }
  - { offset: 0x2EE43, size: 0x8, addend: 0x0, symName: __ZN3fmt3v106detail13exponent_maskIdEENS1_9dragonbox10float_infoIT_vE12carrier_uintEv, symObjAddr: 0xD304, symBinAddr: 0x100011164, symSize: 0x20 }
  - { offset: 0x2EE72, size: 0x8, addend: 0x0, symName: __ZN3fmt3v106detail5writeIcNS0_8appenderEfLi0EEET0_S4_T1_, symObjAddr: 0xD0C4, symBinAddr: 0x100010F24, symSize: 0x240 }
  - { offset: 0x2F01D, size: 0x8, addend: 0x0, symName: __ZN3fmt3v106detail13exponent_maskIfEENS1_9dragonbox10float_infoIT_vE12carrier_uintEv, symObjAddr: 0xD0A4, symBinAddr: 0x100010F04, symSize: 0x20 }
  - { offset: 0x2F04C, size: 0x8, addend: 0x0, symName: __ZN3fmt3v106detail5writeIcNS0_8appenderEEET0_S4_T_, symObjAddr: 0xD03C, symBinAddr: 0x100010E9C, symSize: 0x68 }
  - { offset: 0x2F0AA, size: 0x8, addend: 0x0, symName: __ZN3fmt3v106detail5writeIcNS0_8appenderEbLi0EEET0_S4_T1_RKNS0_12format_specsIT_EENS1_10locale_refE, symObjAddr: 0xCEAC, symBinAddr: 0x100010D0C, symSize: 0x190 }
  - { offset: 0x2F1AA, size: 0x8, addend: 0x0, symName: __ZN3fmt3v106detail5writeIcNS0_8appenderEoLi0EEET0_S4_T1_, symObjAddr: 0xCD40, symBinAddr: 0x100010BA0, symSize: 0x16C }
  - { offset: 0x2F27C, size: 0x8, addend: 0x0, symName: __ZN3fmt3v106detail5writeIcNS0_8appenderEnLi0EEET0_S4_T1_, symObjAddr: 0xCBD4, symBinAddr: 0x100010A34, symSize: 0x16C }
  - { offset: 0x2F34E, size: 0x8, addend: 0x0, symName: __ZN3fmt3v106detail5writeIcNS0_8appenderEyLi0EEET0_S4_T1_, symObjAddr: 0xCA7C, symBinAddr: 0x1000108DC, symSize: 0x158 }
  - { offset: 0x2F420, size: 0x8, addend: 0x0, symName: __ZN3fmt3v106detail5writeIcNS0_8appenderExLi0EEET0_S4_T1_, symObjAddr: 0xC924, symBinAddr: 0x100010784, symSize: 0x158 }
  - { offset: 0x2F4F2, size: 0x8, addend: 0x0, symName: __ZN3fmt3v106detail5writeIcNS0_8appenderEjLi0EEET0_S4_T1_, symObjAddr: 0xC7CC, symBinAddr: 0x10001062C, symSize: 0x158 }
  - { offset: 0x2F5C4, size: 0x8, addend: 0x0, symName: __ZN3fmt3v106detail5writeIcNS0_8appenderEiLi0EEET0_S4_T1_, symObjAddr: 0xC674, symBinAddr: 0x1000104D4, symSize: 0x158 }
  - { offset: 0x2F6BE, size: 0x8, addend: 0x0, symName: __ZN3fmt3v106detail23dynamic_spec_id_handlerIcE7on_autoEv, symObjAddr: 0xC62C, symBinAddr: 0x10001048C, symSize: 0x48 }
  - { offset: 0x2F6FD, size: 0x8, addend: 0x0, symName: __ZN3fmt3v106detail15do_parse_arg_idIcRNS1_23dynamic_spec_id_handlerIcEEEEPKT_S8_S8_OT0_, symObjAddr: 0xC4F4, symBinAddr: 0x100010354, symSize: 0x138 }
  - { offset: 0x2F7E3, size: 0x8, addend: 0x0, symName: __ZN3fmt3v106detail13is_name_startIcEEbT_, symObjAddr: 0xC49C, symBinAddr: 0x1000102FC, symSize: 0x58 }
  - { offset: 0x2F817, size: 0x8, addend: 0x0, symName: __ZN3fmt3v106detail18make_write_int_argIoEENS1_13write_int_argINSt11conditionalIXaalecl8num_bitsIT_EELi32EntLi0EEjNS4_IXlecl8num_bitsIS5_EELi64EEyoE4typeEE4typeEEES5_NS0_4sign4typeE, symObjAddr: 0xC3DC, symBinAddr: 0x10001023C, symSize: 0xC0 }
  - { offset: 0x2F8A2, size: 0x8, addend: 0x0, symName: __ZN3fmt3v106detail9write_intINS0_8appenderEocEET_S4_T0_jRKNS0_12format_specsIT1_EERKNS1_14digit_groupingIS7_EE, symObjAddr: 0xC310, symBinAddr: 0x100010170, symSize: 0xCC }
  - { offset: 0x2F9CC, size: 0x8, addend: 0x0, symName: __ZZN3fmt3v106detail9write_intINS0_8appenderEocEET_S4_T0_jRKNS0_12format_specsIT1_EERKNS1_14digit_groupingIS7_EEENKUlS3_E_clES3_, symObjAddr: 0xC254, symBinAddr: 0x1000100B4, symSize: 0xBC }
  - { offset: 0x2FA77, size: 0x8, addend: 0x0, symName: __ZN3fmt3v106detail18make_write_int_argInEENS1_13write_int_argINSt11conditionalIXaalecl8num_bitsIT_EELi32EntLi0EEjNS4_IXlecl8num_bitsIS5_EELi64EEyoE4typeEE4typeEEES5_NS0_4sign4typeE, symObjAddr: 0xC194, symBinAddr: 0x10000FFF4, symSize: 0xC0 }
  - { offset: 0x2FB02, size: 0x8, addend: 0x0, symName: __ZN3fmt3v106detail18make_write_int_argIyEENS1_13write_int_argINSt11conditionalIXaalecl8num_bitsIT_EELi32EntLi0EEjNS4_IXlecl8num_bitsIS5_EELi64EEyoE4typeEE4typeEEES5_NS0_4sign4typeE, symObjAddr: 0xC0E8, symBinAddr: 0x10000FF48, symSize: 0xAC }
  - { offset: 0x2FB8C, size: 0x8, addend: 0x0, symName: __ZN3fmt3v106detail18make_write_int_argIxEENS1_13write_int_argINSt11conditionalIXaalecl8num_bitsIT_EELi32EntLi0EEjNS4_IXlecl8num_bitsIS5_EELi64EEyoE4typeEE4typeEEES5_NS0_4sign4typeE, symObjAddr: 0xC03C, symBinAddr: 0x10000FE9C, symSize: 0xAC }
  - { offset: 0x2FC16, size: 0x8, addend: 0x0, symName: __ZN3fmt3v106detail18make_write_int_argIjEENS1_13write_int_argINSt11conditionalIXaalecl8num_bitsIT_EELi32EntLi0EEjNS4_IXlecl8num_bitsIS5_EELi64EEyoE4typeEE4typeEEES5_NS0_4sign4typeE, symObjAddr: 0xBF90, symBinAddr: 0x10000FDF0, symSize: 0xAC }
  - { offset: 0x2FCA0, size: 0x8, addend: 0x0, symName: __ZN3fmt3v106detail9write_intINS0_8appenderEycEET_S4_T0_jRKNS0_12format_specsIT1_EERKNS1_14digit_groupingIS7_EE, symObjAddr: 0xBEC4, symBinAddr: 0x10000FD24, symSize: 0xCC }
  - { offset: 0x2FDCA, size: 0x8, addend: 0x0, symName: __ZZN3fmt3v106detail9write_intINS0_8appenderEycEET_S4_T0_jRKNS0_12format_specsIT1_EERKNS1_14digit_groupingIS7_EEENKUlS3_E_clES3_, symObjAddr: 0xBE08, symBinAddr: 0x10000FC68, symSize: 0xBC }
  - { offset: 0x2FEAF, size: 0x8, addend: 0x0, symName: __ZN3fmt3v106detail14digit_groupingIcEC1ENSt7__cxx1112basic_stringIcSt11char_traitsIcESaIcEEES9_, symObjAddr: 0xBDAC, symBinAddr: 0x10000FC0C, symSize: 0x5C }
  - { offset: 0x2FEE5, size: 0x8, addend: 0x0, symName: __ZN3fmt3v106detail18make_write_int_argIiEENS1_13write_int_argINSt11conditionalIXaalecl8num_bitsIT_EELi32EntLi0EEjNS4_IXlecl8num_bitsIS5_EELi64EEyoE4typeEE4typeEEES5_NS0_4sign4typeE, symObjAddr: 0xBD00, symBinAddr: 0x10000FB60, symSize: 0xAC }
  - { offset: 0x2FFCE, size: 0x8, addend: 0x0, symName: __ZNK3fmt3v1017basic_string_viewIcEixEm, symObjAddr: 0xBCF4, symBinAddr: 0x10000FB54, symSize: 0xC }
  - { offset: 0x30005, size: 0x8, addend: 0x0, symName: __ZSt10__fill_n_aIPjiiET_S1_T0_RKT1_St26random_access_iterator_tag, symObjAddr: 0xBC90, symBinAddr: 0x10000FAF0, symSize: 0x64 }
  - { offset: 0x300BB, size: 0x8, addend: 0x0, symName: __ZNSt14_Function_base13_Base_managerIPFvvEE10_M_managerERSt9_Any_dataRKS4_St18_Manager_operation, symObjAddr: 0xBBD4, symBinAddr: 0x10000FA34, symSize: 0xBC }
  - { offset: 0x30112, size: 0x8, addend: 0x0, symName: __ZNSt9_Any_data9_M_accessIPPFvvEEERT_v, symObjAddr: 0xBBB8, symBinAddr: 0x10000FA18, symSize: 0x1C }
  - { offset: 0x30141, size: 0x8, addend: 0x0, symName: __ZSt10__invoke_rIvRPFvvEJEENSt9enable_ifIX16is_invocable_r_vIT_T0_JDpT1_EEES4_E4typeEOS5_DpOS6_, symObjAddr: 0xBB84, symBinAddr: 0x10000F9E4, symSize: 0x34 }
  - { offset: 0x30186, size: 0x8, addend: 0x0, symName: __ZNSt14_Function_base13_Base_managerIPFvvEE14_M_get_pointerERKSt9_Any_data, symObjAddr: 0xBB5C, symBinAddr: 0x10000F9BC, symSize: 0x28 }
  - { offset: 0x301D8, size: 0x8, addend: 0x0, symName: __ZNSt14_Function_base13_Base_managerIPFvvEE9_M_createIRS1_EEvRSt9_Any_dataOT_St17integral_constantIbLb1EE, symObjAddr: 0xBB10, symBinAddr: 0x10000F970, symSize: 0x4C }
  - { offset: 0x302E9, size: 0x8, addend: 0x0, symName: __ZNSt14_Function_base13_Base_managerIZN15fsm_definitions18exception_handling25with_exceptions_displayedERKSt8functionIFvvEEEUlRKSt9exceptionE_E10_M_managerERSt9_Any_dataRKSD_St18_Manager_operation, symObjAddr: 0xBA54, symBinAddr: 0x10000F8B4, symSize: 0xBC }
  - { offset: 0x3033C, size: 0x8, addend: 0x0, symName: __ZNSt9_Any_data9_M_accessIPZN15fsm_definitions18exception_handling25with_exceptions_displayedERKSt8functionIFvvEEEUlRKSt9exceptionE_EERT_v, symObjAddr: 0xBA38, symBinAddr: 0x10000F898, symSize: 0x1C }
  - { offset: 0x30375, size: 0x8, addend: 0x0, symName: __ZNSt9_Any_data9_M_accessIPKSt9type_infoEERT_v, symObjAddr: 0xBA1C, symBinAddr: 0x10000F87C, symSize: 0x1C }
  - { offset: 0x303A4, size: 0x8, addend: 0x0, symName: __ZSt10__invoke_rIvRZN15fsm_definitions18exception_handling25with_exceptions_displayedERKSt8functionIFvvEEEUlRKSt9exceptionE_JS9_EENSt9enable_ifIX16is_invocable_r_vIT_T0_JDpT1_EEESD_E4typeEOSE_DpOSF_, symObjAddr: 0xB9D4, symBinAddr: 0x10000F834, symSize: 0x48 }
  - { offset: 0x303F5, size: 0x8, addend: 0x0, symName: __ZNSt14_Function_base13_Base_managerIZN15fsm_definitions18exception_handling25with_exceptions_displayedERKSt8functionIFvvEEEUlRKSt9exceptionE_E14_M_get_pointerERKSt9_Any_data, symObjAddr: 0xB9AC, symBinAddr: 0x10000F80C, symSize: 0x28 }
  - { offset: 0x30447, size: 0x8, addend: 0x0, symName: __ZNSt14_Function_base13_Base_managerIZN15fsm_definitions18exception_handling25with_exceptions_displayedERKSt8functionIFvvEEEUlRKSt9exceptionE_E9_M_createISB_EEvRSt9_Any_dataOT_St17integral_constantIbLb1EE, symObjAddr: 0xB95C, symBinAddr: 0x10000F7BC, symSize: 0x50 }
  - { offset: 0x304E2, size: 0x8, addend: 0x0, symName: __ZN3fmt3v1016make_format_argsINS0_20basic_format_contextINS0_8appenderEcEEJPKcS6_EEENS0_16format_arg_storeIT_JDpNSt9remove_cvINSt16remove_referenceIT0_E4typeEE4typeEEEEDpRSB_, symObjAddr: 0xB940, symBinAddr: 0x10000F7A0, symSize: 0x1C }
  - { offset: 0x3052D, size: 0x8, addend: 0x0, symName: __ZN3fmt3v1016make_format_argsINS0_20basic_format_contextINS0_8appenderEcEEJPKcS6_EEENS0_16format_arg_storeIT_JDpNSt9remove_cvINSt16remove_referenceIT0_E4typeEE4typeEEEEDpRSB_, symObjAddr: 0xB940, symBinAddr: 0x10000F7A0, symSize: 0x1C }
  - { offset: 0x30565, size: 0x8, addend: 0x0, symName: __ZN3fmt3v1016make_format_argsINS0_20basic_format_contextINS0_8appenderEcEEJPKcS6_EEENS0_16format_arg_storeIT_JDpNSt9remove_cvINSt16remove_referenceIT0_E4typeEE4typeEEEEDpRSB_, symObjAddr: 0xB940, symBinAddr: 0x10000F7A0, symSize: 0x1C }
  - { offset: 0x308E4, size: 0x8, addend: 0x0, symName: __ZN3fmt3v106detail23parse_replacement_fieldIcRZNS1_10vformat_toIcEEvRNS1_6bufferIT_EENS0_17basic_string_viewIS5_EENS1_12vformat_argsIS5_E4typeENS1_10locale_refEE14format_handlerEEPKS5_SH_SH_OT0_, symObjAddr: 0xB390, symBinAddr: 0x10000F1F0, symSize: 0x5B0 }
  - { offset: 0x309EE, size: 0x8, addend: 0x0, symName: __ZZN3fmt3v106detail23parse_replacement_fieldIcRZNS1_10vformat_toIcEEvRNS1_6bufferIT_EENS0_17basic_string_viewIS5_EENS1_12vformat_argsIS5_E4typeENS1_10locale_refEE14format_handlerEEPKS5_SH_SH_OT0_EN10id_adapter7on_autoEv, symObjAddr: 0xB318, symBinAddr: 0x10000F178, symSize: 0x28 }
  - { offset: 0x30A21, size: 0x8, addend: 0x0, symName: __ZZN3fmt3v106detail23parse_replacement_fieldIcRZNS1_10vformat_toIcEEvRNS1_6bufferIT_EENS0_17basic_string_viewIS5_EENS1_12vformat_argsIS5_E4typeENS1_10locale_refEE14format_handlerEEPKS5_SH_SH_OT0_EN10id_adapter8on_indexEi, symObjAddr: 0xB340, symBinAddr: 0x10000F1A0, symSize: 0x28 }
  - { offset: 0x30A66, size: 0x8, addend: 0x0, symName: __ZZN3fmt3v106detail23parse_replacement_fieldIcRZNS1_10vformat_toIcEEvRNS1_6bufferIT_EENS0_17basic_string_viewIS5_EENS1_12vformat_argsIS5_E4typeENS1_10locale_refEE14format_handlerEEPKS5_SH_SH_OT0_EN10id_adapter7on_nameENS8_IcEE, symObjAddr: 0xB368, symBinAddr: 0x10000F1C8, symSize: 0x28 }
  - { offset: 0x30C38, size: 0x8, addend: 0x0, symName: __ZN3fmt3v106detail13arg_formatterIcEclENS0_16basic_format_argINS0_20basic_format_contextINS0_8appenderEcEEE6handleE, symObjAddr: 0xB2FC, symBinAddr: 0x10000F15C, symSize: 0x1C }
  - { offset: 0x30EDD, size: 0x8, addend: 0x0, symName: __ZN3fmt3v106detail16get_dynamic_specINS1_17precision_checkerENS0_16basic_format_argINS0_20basic_format_contextINS0_8appenderEcEEEENS1_13error_handlerEEEiT0_T1_, symObjAddr: 0xB09C, symBinAddr: 0x10000EEFC, symSize: 0x260 }
  - { offset: 0x30F83, size: 0x8, addend: 0x0, symName: __ZN3fmt3v106detail7get_argINS0_20basic_format_contextINS0_8appenderEcEENS0_17basic_string_viewIcEEEEDTcldtfp_3argfp0_EERT_T0_, symObjAddr: 0xB038, symBinAddr: 0x10000EE98, symSize: 0x64 }
  - { offset: 0x30FE1, size: 0x8, addend: 0x0, symName: __ZN3fmt3v106detail16get_dynamic_specINS1_13width_checkerENS0_16basic_format_argINS0_20basic_format_contextINS0_8appenderEcEEEENS1_13error_handlerEEEiT0_T1_, symObjAddr: 0xADD8, symBinAddr: 0x10000EC38, symSize: 0x260 }
  - { offset: 0x3108B, size: 0x8, addend: 0x0, symName: __ZN3fmt3v1020basic_format_contextINS0_8appenderEcE13error_handlerEv, symObjAddr: 0xADD0, symBinAddr: 0x10000EC30, symSize: 0x8 }
  - { offset: 0x310B6, size: 0x8, addend: 0x0, symName: __ZNK3fmt3v106detail16custom_formatterIcEclINS0_9monostateEEEvT_, symObjAddr: 0xADB8, symBinAddr: 0x10000EC18, symSize: 0x18 }
  - { offset: 0x310F2, size: 0x8, addend: 0x0, symName: __ZNK3fmt3v106detail16custom_formatterIcEclENS0_16basic_format_argINS0_20basic_format_contextINS0_8appenderEcEEE6handleE, symObjAddr: 0xAD84, symBinAddr: 0x10000EBE4, symSize: 0x34 }
  - { offset: 0x3112D, size: 0x8, addend: 0x0, symName: __ZNK3fmt3v106detail16custom_formatterIcEclIPKvEEvT_, symObjAddr: 0xAD6C, symBinAddr: 0x10000EBCC, symSize: 0x18 }
  - { offset: 0x31169, size: 0x8, addend: 0x0, symName: __ZNK3fmt3v106detail16custom_formatterIcEclINS0_17basic_string_viewIcEEEEvT_, symObjAddr: 0xAD54, symBinAddr: 0x10000EBB4, symSize: 0x18 }
  - { offset: 0x311A5, size: 0x8, addend: 0x0, symName: __ZNK3fmt3v106detail16custom_formatterIcEclIPKcEEvT_, symObjAddr: 0xAD3C, symBinAddr: 0x10000EB9C, symSize: 0x18 }
  - { offset: 0x311E1, size: 0x8, addend: 0x0, symName: __ZNK3fmt3v106detail16custom_formatterIcEclIeEEvT_, symObjAddr: 0xAD24, symBinAddr: 0x10000EB84, symSize: 0x18 }
  - { offset: 0x3121D, size: 0x8, addend: 0x0, symName: __ZNK3fmt3v106detail16custom_formatterIcEclIdEEvT_, symObjAddr: 0xAD0C, symBinAddr: 0x10000EB6C, symSize: 0x18 }
  - { offset: 0x31259, size: 0x8, addend: 0x0, symName: __ZNK3fmt3v106detail16custom_formatterIcEclIfEEvT_, symObjAddr: 0xACF4, symBinAddr: 0x10000EB54, symSize: 0x18 }
  - { offset: 0x31295, size: 0x8, addend: 0x0, symName: __ZNK3fmt3v106detail16custom_formatterIcEclIcEEvT_, symObjAddr: 0xACD8, symBinAddr: 0x10000EB38, symSize: 0x1C }
  - { offset: 0x312D1, size: 0x8, addend: 0x0, symName: __ZNK3fmt3v106detail16custom_formatterIcEclIbEEvT_, symObjAddr: 0xACBC, symBinAddr: 0x10000EB1C, symSize: 0x1C }
  - { offset: 0x3130D, size: 0x8, addend: 0x0, symName: __ZNK3fmt3v106detail16custom_formatterIcEclIoEEvT_, symObjAddr: 0xACA4, symBinAddr: 0x10000EB04, symSize: 0x18 }
  - { offset: 0x31349, size: 0x8, addend: 0x0, symName: __ZNK3fmt3v106detail16custom_formatterIcEclInEEvT_, symObjAddr: 0xAC8C, symBinAddr: 0x10000EAEC, symSize: 0x18 }
  - { offset: 0x31385, size: 0x8, addend: 0x0, symName: __ZNK3fmt3v106detail16custom_formatterIcEclIyEEvT_, symObjAddr: 0xAC74, symBinAddr: 0x10000EAD4, symSize: 0x18 }
  - { offset: 0x313C1, size: 0x8, addend: 0x0, symName: __ZNK3fmt3v106detail16custom_formatterIcEclIxEEvT_, symObjAddr: 0xAC5C, symBinAddr: 0x10000EABC, symSize: 0x18 }
  - { offset: 0x313FD, size: 0x8, addend: 0x0, symName: __ZNK3fmt3v106detail16custom_formatterIcEclIjEEvT_, symObjAddr: 0xAC44, symBinAddr: 0x10000EAA4, symSize: 0x18 }
  - { offset: 0x31439, size: 0x8, addend: 0x0, symName: __ZNK3fmt3v106detail16custom_formatterIcEclIiEEvT_, symObjAddr: 0xAC2C, symBinAddr: 0x10000EA8C, symSize: 0x18 }
  - { offset: 0x31475, size: 0x8, addend: 0x0, symName: __ZN3fmt3v1020basic_format_contextINS0_8appenderEcE8on_errorEPKc, symObjAddr: 0x25EFC, symBinAddr: 0x10002899C, symSize: 0x10 }
  - { offset: 0x314B2, size: 0x8, addend: 0x0, symName: __ZNK3fmt3v1020basic_format_contextINS0_8appenderEcE3argEi, symObjAddr: 0xAC14, symBinAddr: 0x10000EA74, symSize: 0x18 }
  - { offset: 0x314EF, size: 0x8, addend: 0x0, symName: __ZNK3fmt3v1017basic_format_argsINS0_20basic_format_contextINS0_8appenderEcEEE6get_idIcEEiNS0_17basic_string_viewIT_EE, symObjAddr: 0xAB54, symBinAddr: 0x10000E9B4, symSize: 0xC0 }
  - { offset: 0x3158D, size: 0x8, addend: 0x0, symName: __ZN3fmt3v106detail13base_iteratorINS0_8appenderEEET_S4_S4_, symObjAddr: 0xAB3C, symBinAddr: 0x10000E99C, symSize: 0x18 }
  - { offset: 0x315C9, size: 0x8, addend: 0x0, symName: __ZN3fmt3v106detail17copy_str_noinlineIcPKcNS0_8appenderEEET1_T0_S7_S6_, symObjAddr: 0xAB10, symBinAddr: 0x10000E970, symSize: 0x2C }
  - { offset: 0x31630, size: 0x8, addend: 0x0, symName: __ZN3fmt3v106detail7reserveINS0_8appenderEEERT_S5_m, symObjAddr: 0xAAF8, symBinAddr: 0x10000E958, symSize: 0x18 }
  - { offset: 0x31670, size: 0x8, addend: 0x0, symName: __ZN3fmt3v106detail21default_arg_formatterIcEclINS0_9monostateEEENS0_8appenderET_, symObjAddr: 0xAAA8, symBinAddr: 0x10000E908, symSize: 0x50 }
  - { offset: 0x316D5, size: 0x8, addend: 0x0, symName: __ZN3fmt3v106detail21default_arg_formatterIcEclENS0_16basic_format_argINS0_20basic_format_contextINS0_8appenderEcEEE6handleE, symObjAddr: 0xAA48, symBinAddr: 0x10000E8A8, symSize: 0x60 }
  - { offset: 0x31734, size: 0x8, addend: 0x0, symName: __ZN3fmt3v106detail21default_arg_formatterIcEclIPKvEENS0_8appenderET_, symObjAddr: 0xAA04, symBinAddr: 0x10000E864, symSize: 0x44 }
  - { offset: 0x31799, size: 0x8, addend: 0x0, symName: __ZN3fmt3v106detail21default_arg_formatterIcEclINS0_17basic_string_viewIcEEEENS0_8appenderET_, symObjAddr: 0xA9DC, symBinAddr: 0x10000E83C, symSize: 0x28 }
  - { offset: 0x317DD, size: 0x8, addend: 0x0, symName: __ZN3fmt3v106detail21default_arg_formatterIcEclIPKcEENS0_8appenderET_, symObjAddr: 0xA9B4, symBinAddr: 0x10000E814, symSize: 0x28 }
  - { offset: 0x31821, size: 0x8, addend: 0x0, symName: __ZN3fmt3v106detail21default_arg_formatterIcEclIeEENS0_8appenderET_, symObjAddr: 0xA98C, symBinAddr: 0x10000E7EC, symSize: 0x28 }
  - { offset: 0x31865, size: 0x8, addend: 0x0, symName: __ZN3fmt3v106detail21default_arg_formatterIcEclIdEENS0_8appenderET_, symObjAddr: 0xA964, symBinAddr: 0x10000E7C4, symSize: 0x28 }
  - { offset: 0x318A9, size: 0x8, addend: 0x0, symName: __ZN3fmt3v106detail21default_arg_formatterIcEclIfEENS0_8appenderET_, symObjAddr: 0xA93C, symBinAddr: 0x10000E79C, symSize: 0x28 }
  - { offset: 0x318ED, size: 0x8, addend: 0x0, symName: __ZN3fmt3v106detail21default_arg_formatterIcEclIcEENS0_8appenderET_, symObjAddr: 0xA910, symBinAddr: 0x10000E770, symSize: 0x2C }
  - { offset: 0x31931, size: 0x8, addend: 0x0, symName: __ZN3fmt3v106detail21default_arg_formatterIcEclIbEENS0_8appenderET_, symObjAddr: 0xA8CC, symBinAddr: 0x10000E72C, symSize: 0x44 }
  - { offset: 0x31996, size: 0x8, addend: 0x0, symName: __ZN3fmt3v106detail21default_arg_formatterIcEclIoEENS0_8appenderET_, symObjAddr: 0xA8A4, symBinAddr: 0x10000E704, symSize: 0x28 }
  - { offset: 0x319DA, size: 0x8, addend: 0x0, symName: __ZN3fmt3v106detail21default_arg_formatterIcEclInEENS0_8appenderET_, symObjAddr: 0xA87C, symBinAddr: 0x10000E6DC, symSize: 0x28 }
  - { offset: 0x31A1E, size: 0x8, addend: 0x0, symName: __ZN3fmt3v106detail21default_arg_formatterIcEclIyEENS0_8appenderET_, symObjAddr: 0xA854, symBinAddr: 0x10000E6B4, symSize: 0x28 }
  - { offset: 0x31A62, size: 0x8, addend: 0x0, symName: __ZN3fmt3v106detail21default_arg_formatterIcEclIxEENS0_8appenderET_, symObjAddr: 0xA82C, symBinAddr: 0x10000E68C, symSize: 0x28 }
  - { offset: 0x31AA6, size: 0x8, addend: 0x0, symName: __ZN3fmt3v106detail21default_arg_formatterIcEclIjEENS0_8appenderET_, symObjAddr: 0xA804, symBinAddr: 0x10000E664, symSize: 0x28 }
  - { offset: 0x31AEA, size: 0x8, addend: 0x0, symName: __ZN3fmt3v106detail21default_arg_formatterIcEclIiEENS0_8appenderET_, symObjAddr: 0xA7DC, symBinAddr: 0x10000E63C, symSize: 0x28 }
  - { offset: 0x31C43, size: 0x8, addend: 0x0, symName: __ZN3fmt3v106detail10loc_writerIcEclINS0_9monostateELi0EEEbT_, symObjAddr: 0xA7C4, symBinAddr: 0x10000E624, symSize: 0x18 }
  - { offset: 0x31C7F, size: 0x8, addend: 0x0, symName: __ZN3fmt3v106detail10loc_writerIcEclINS0_16basic_format_argINS0_20basic_format_contextINS0_8appenderEcEEE6handleELi0EEEbT_, symObjAddr: 0xA7AC, symBinAddr: 0x10000E60C, symSize: 0x18 }
  - { offset: 0x31CE3, size: 0x8, addend: 0x0, symName: __ZN3fmt3v1016basic_format_argINS0_20basic_format_contextINS0_8appenderEcEEE6handleC1ENS0_6detail12custom_valueIS4_EE, symObjAddr: 0xA7A4, symBinAddr: 0x10000E604, symSize: 0x8 }
  - { offset: 0x31D15, size: 0x8, addend: 0x0, symName: __ZN3fmt3v106detail10loc_writerIcEclIPKvLi0EEEbT_, symObjAddr: 0xA78C, symBinAddr: 0x10000E5EC, symSize: 0x18 }
  - { offset: 0x31D51, size: 0x8, addend: 0x0, symName: __ZN3fmt3v106detail10loc_writerIcEclINS0_17basic_string_viewIcEELi0EEEbT_, symObjAddr: 0xA774, symBinAddr: 0x10000E5D4, symSize: 0x18 }
  - { offset: 0x31D8D, size: 0x8, addend: 0x0, symName: __ZN3fmt3v106detail10loc_writerIcEclIPKcLi0EEEbT_, symObjAddr: 0xA75C, symBinAddr: 0x10000E5BC, symSize: 0x18 }
  - { offset: 0x31DC9, size: 0x8, addend: 0x0, symName: __ZN3fmt3v106detail10loc_writerIcEclIeLi0EEEbT_, symObjAddr: 0xA744, symBinAddr: 0x10000E5A4, symSize: 0x18 }
  - { offset: 0x31E05, size: 0x8, addend: 0x0, symName: __ZN3fmt3v106detail10loc_writerIcEclIdLi0EEEbT_, symObjAddr: 0xA72C, symBinAddr: 0x10000E58C, symSize: 0x18 }
  - { offset: 0x31E41, size: 0x8, addend: 0x0, symName: __ZN3fmt3v106detail10loc_writerIcEclIfLi0EEEbT_, symObjAddr: 0xA714, symBinAddr: 0x10000E574, symSize: 0x18 }
  - { offset: 0x31E7D, size: 0x8, addend: 0x0, symName: __ZN3fmt3v106detail10loc_writerIcEclIcLi0EEEbT_, symObjAddr: 0xA6F8, symBinAddr: 0x10000E558, symSize: 0x1C }
  - { offset: 0x31EB9, size: 0x8, addend: 0x0, symName: __ZN3fmt3v106detail10loc_writerIcEclIbLi0EEEbT_, symObjAddr: 0xA6DC, symBinAddr: 0x10000E53C, symSize: 0x1C }
  - { offset: 0x31EF5, size: 0x8, addend: 0x0, symName: __ZN3fmt3v106detail10loc_writerIcEclIoLi0EEEbT_, symObjAddr: 0xA5D8, symBinAddr: 0x10000E438, symSize: 0x104 }
  - { offset: 0x31F49, size: 0x8, addend: 0x0, symName: __ZN3fmt3v106detail17convert_for_visitIoEET_S3_, symObjAddr: 0xA5D4, symBinAddr: 0x10000E434, symSize: 0x4 }
  - { offset: 0x31F84, size: 0x8, addend: 0x0, symName: __ZN3fmt3v106detail10loc_writerIcEclInLi0EEEbT_, symObjAddr: 0xA4D0, symBinAddr: 0x10000E330, symSize: 0x104 }
  - { offset: 0x31FD8, size: 0x8, addend: 0x0, symName: __ZN3fmt3v106detail17convert_for_visitInEET_S3_, symObjAddr: 0xA4CC, symBinAddr: 0x10000E32C, symSize: 0x4 }
  - { offset: 0x32013, size: 0x8, addend: 0x0, symName: __ZN3fmt3v106detail10loc_writerIcEclIyLi0EEEbT_, symObjAddr: 0xA3D4, symBinAddr: 0x10000E234, symSize: 0xF8 }
  - { offset: 0x3206B, size: 0x8, addend: 0x0, symName: __ZN3fmt3v106detail10loc_writerIcEclIxLi0EEEbT_, symObjAddr: 0xA2DC, symBinAddr: 0x10000E13C, symSize: 0xF8 }
  - { offset: 0x320C3, size: 0x8, addend: 0x0, symName: __ZN3fmt3v106detail10loc_writerIcEclIjLi0EEEbT_, symObjAddr: 0xA1E0, symBinAddr: 0x10000E040, symSize: 0xFC }
  - { offset: 0x3211B, size: 0x8, addend: 0x0, symName: __ZN3fmt3v106detail10loc_writerIcEclIiLi0EEEbT_, symObjAddr: 0xA0E4, symBinAddr: 0x10000DF44, symSize: 0xFC }
  - { offset: 0x3219B, size: 0x8, addend: 0x0, symName: __ZN3fmt3v106detail14digit_groupingIcED1Ev, symObjAddr: 0xA0B8, symBinAddr: 0x10000DF18, symSize: 0x2C }
  - { offset: 0x321C1, size: 0x8, addend: 0x0, symName: __ZNSt15__new_allocatorIcE10deallocateEPcm, symObjAddr: 0xA090, symBinAddr: 0x10000DEF0, symSize: 0x28 }
  - { offset: 0x3220B, size: 0x8, addend: 0x0, symName: __ZNK3fmt3v106detail6bufferIcE8capacityEv, symObjAddr: 0xA088, symBinAddr: 0x10000DEE8, symSize: 0x8 }
  - { offset: 0x32232, size: 0x8, addend: 0x0, symName: __ZN3fmt3v106detail11to_unsignedImEENSt13make_unsignedIT_E4typeES4_, symObjAddr: 0xA084, symBinAddr: 0x10000DEE4, symSize: 0x4 }
  - { offset: 0x32264, size: 0x8, addend: 0x0, symName: __ZN3fmt3v106detail6fill_nIPcmcEET_S4_T0_RKT1_, symObjAddr: 0xA028, symBinAddr: 0x10000DE88, symSize: 0x5C }
  - { offset: 0x32332, size: 0x8, addend: 0x0, symName: __ZN3fmt3v106detail6fill_tIcEaSENS0_17basic_string_viewIcEE, symObjAddr: 0x9FA8, symBinAddr: 0x10000DE08, symSize: 0x80 }
  - { offset: 0x32396, size: 0x8, addend: 0x0, symName: __ZN3fmt3v106detail17code_point_lengthIcEEiPKT_, symObjAddr: 0x9F88, symBinAddr: 0x10000DDE8, symSize: 0x20 }
  - { offset: 0x323DC, size: 0x8, addend: 0x0, symName: __ZN3fmt3v106detail15parse_precisionIcEEPKT_S5_S5_RiRNS1_7arg_refIS3_EERNS0_26basic_format_parse_contextIS3_EE, symObjAddr: 0x9F4C, symBinAddr: 0x10000DDAC, symSize: 0x3C }
  - { offset: 0x32458, size: 0x8, addend: 0x0, symName: __ZN3fmt3v106detail16check_char_specsIcEEbRKNS0_12format_specsIT_EE, symObjAddr: 0x9EF0, symBinAddr: 0x10000DD50, symSize: 0x5C }
  - { offset: 0x324B9, size: 0x8, addend: 0x0, symName: __ZSt6fill_nIPjiiET_S1_T0_RKT1_, symObjAddr: 0x9EA8, symBinAddr: 0x10000DD08, symSize: 0x48 }
  - { offset: 0x32545, size: 0x8, addend: 0x0, symName: __ZN3fmt3v106detail6bufferIjE5clearEv, symObjAddr: 0x9EA0, symBinAddr: 0x10000DD00, symSize: 0x8 }
  - { offset: 0x3256A, size: 0x8, addend: 0x0, symName: __ZN3fmt3v106detail8copy_strIjPjS3_EET1_T0_S5_S4_, symObjAddr: 0x9E80, symBinAddr: 0x10000DCE0, symSize: 0x20 }
  - { offset: 0x325D8, size: 0x8, addend: 0x0, symName: __ZSt4moveIRSaIjEEONSt16remove_referenceIT_E4typeEOS3_, symObjAddr: 0x9E6C, symBinAddr: 0x10000DCCC, symSize: 0x14 }
  - { offset: 0x3260E, size: 0x8, addend: 0x0, symName: __ZNSt15__new_allocatorIjE10deallocateEPjm, symObjAddr: 0x9E3C, symBinAddr: 0x10000DC9C, symSize: 0x30 }
  - { offset: 0x3269A, size: 0x8, addend: 0x0, symName: __ZNSt17_Nested_exceptionISt13runtime_errorEC1EOS0_, symObjAddr: 0x9DE0, symBinAddr: 0x10000DC40, symSize: 0x5C }
  - { offset: 0x326CB, size: 0x8, addend: 0x0, symName: __ZSt7forwardISt13runtime_errorEOT_RNSt16remove_referenceIS1_E4typeE, symObjAddr: 0x9DCC, symBinAddr: 0x10000DC2C, symSize: 0x14 }
  - { offset: 0x3273E, size: 0x8, addend: 0x0, symName: __ZNSt17_Function_handlerIFvvEPS0_E10_M_managerERSt9_Any_dataRKS3_St18_Manager_operation, symObjAddr: 0x9D48, symBinAddr: 0x10000DBA8, symSize: 0x84 }
  - { offset: 0x3278A, size: 0x8, addend: 0x0, symName: __ZNSt17_Function_handlerIFvvEPS0_E9_M_invokeERKSt9_Any_data, symObjAddr: 0x9D24, symBinAddr: 0x10000DB84, symSize: 0x24 }
  - { offset: 0x327B4, size: 0x8, addend: 0x0, symName: __ZNSt14_Function_base13_Base_managerIPFvvEE15_M_init_functorIRS1_EEvRSt9_Any_dataOT_, symObjAddr: 0x9CE8, symBinAddr: 0x10000DB48, symSize: 0x3C }
  - { offset: 0x32800, size: 0x8, addend: 0x0, symName: __ZSt7forwardIRFvvEEOT_RNSt16remove_referenceIS2_E4typeE, symObjAddr: 0x9CD4, symBinAddr: 0x10000DB34, symSize: 0x14 }
  - { offset: 0x32832, size: 0x8, addend: 0x0, symName: __ZNSt14_Function_base13_Base_managerIPFvvEE21_M_not_empty_functionIS1_EEbPT_, symObjAddr: 0x9CB4, symBinAddr: 0x10000DB14, symSize: 0x20 }
  - { offset: 0x328B4, size: 0x8, addend: 0x0, symName: __ZN3fmt3v1016make_format_argsINS0_20basic_format_contextINS0_8appenderEcEEJSt17basic_string_viewIcSt11char_traitsIcEEA26_KcEEENS0_16format_arg_storeIT_JDpNSt9remove_cvINSt16remove_referenceIT0_E4typeEE4typeEEEEDpRSF_, symObjAddr: 0x9C58, symBinAddr: 0x10000DAB8, symSize: 0x5C }
  - { offset: 0x32AE3, size: 0x8, addend: 0x0, symName: __ZN3fmt3v1016make_format_argsINS0_20basic_format_contextINS0_8appenderEcEEJSt17basic_string_viewIcSt11char_traitsIcEEA18_KcEEENS0_16format_arg_storeIT_JDpNSt9remove_cvINSt16remove_referenceIT0_E4typeEE4typeEEEEDpRSF_, symObjAddr: 0x9BFC, symBinAddr: 0x10000DA5C, symSize: 0x5C }
  - { offset: 0x32D00, size: 0x8, addend: 0x0, symName: __ZN3fmt3v1016make_format_argsINS0_20basic_format_contextINS0_8appenderEcEEJSt17basic_string_viewIcSt11char_traitsIcEEA22_KcEEENS0_16format_arg_storeIT_JDpNSt9remove_cvINSt16remove_referenceIT0_E4typeEE4typeEEEEDpRSF_, symObjAddr: 0x9BA0, symBinAddr: 0x10000DA00, symSize: 0x5C }
  - { offset: 0x32ECD, size: 0x8, addend: 0x0, symName: __ZNSt17_Function_handlerIFvRKSt9exceptionEZN15fsm_definitions18exception_handling25with_exceptions_displayedERKSt8functionIFvvEEEUlS2_E_E10_M_managerERSt9_Any_dataRKSD_St18_Manager_operation, symObjAddr: 0x9B1C, symBinAddr: 0x10000D97C, symSize: 0x84 }
  - { offset: 0x32F19, size: 0x8, addend: 0x0, symName: __ZNSt17_Function_handlerIFvRKSt9exceptionEZN15fsm_definitions18exception_handling25with_exceptions_displayedERKSt8functionIFvvEEEUlS2_E_E9_M_invokeERKSt9_Any_dataS2_, symObjAddr: 0x9AD8, symBinAddr: 0x10000D938, symSize: 0x44 }
  - { offset: 0x32F54, size: 0x8, addend: 0x0, symName: __ZNSt14_Function_base13_Base_managerIZN15fsm_definitions18exception_handling25with_exceptions_displayedERKSt8functionIFvvEEEUlRKSt9exceptionE_E15_M_init_functorISB_EEvRSt9_Any_dataOT_, symObjAddr: 0x9A9C, symBinAddr: 0x10000D8FC, symSize: 0x3C }
  - { offset: 0x32F9C, size: 0x8, addend: 0x0, symName: __ZSt7forwardIZN15fsm_definitions18exception_handling25with_exceptions_displayedERKSt8functionIFvvEEEUlRKSt9exceptionE_EOT_RNSt16remove_referenceISB_E4typeE, symObjAddr: 0x9A88, symBinAddr: 0x10000D8E8, symSize: 0x14 }
  - { offset: 0x32FCE, size: 0x8, addend: 0x0, symName: __ZNSt14_Function_base13_Base_managerIZN15fsm_definitions18exception_handling25with_exceptions_displayedERKSt8functionIFvvEEEUlRKSt9exceptionE_E21_M_not_empty_functionISB_EEbRKT_, symObjAddr: 0x9A74, symBinAddr: 0x10000D8D4, symSize: 0x14 }
  - { offset: 0x3303C, size: 0x8, addend: 0x0, symName: __ZSt7forwardIPKcEOT_RNSt16remove_referenceIS2_E4typeE, symObjAddr: 0x9A60, symBinAddr: 0x10000D8C0, symSize: 0x14 }
  - { offset: 0x330DC, size: 0x8, addend: 0x0, symName: __ZN3fmt3v1016make_format_argsINS0_20basic_format_contextINS0_8appenderEcEEJSt17basic_string_viewIcSt11char_traitsIcEEA14_KcEEENS0_16format_arg_storeIT_JDpNSt9remove_cvINSt16remove_referenceIT0_E4typeEE4typeEEEEDpRSF_, symObjAddr: 0x9A04, symBinAddr: 0x10000D864, symSize: 0x5C }
  - { offset: 0x332AD, size: 0x8, addend: 0x0, symName: __ZNKSt8functionIFvRKSt9exceptionEEcvbEv, symObjAddr: 0x99E0, symBinAddr: 0x10000D840, symSize: 0x24 }
  - { offset: 0x332D9, size: 0x8, addend: 0x0, symName: __ZSt7forwardIRKSt9exceptionEOT_RNSt16remove_referenceIS3_E4typeE, symObjAddr: 0x99CC, symBinAddr: 0x10000D82C, symSize: 0x14 }
  - { offset: 0x33311, size: 0x8, addend: 0x0, symName: __ZN3fmt3v1016make_format_argsINS0_20basic_format_contextINS0_8appenderEcEEJNSt7__cxx1112basic_stringIcSt11char_traitsIcESaIcEEEEEENS0_16format_arg_storeIT_JDpNSt9remove_cvINSt16remove_referenceIT0_E4typeEE4typeEEEEDpRSF_, symObjAddr: 0x998C, symBinAddr: 0x10000D7EC, symSize: 0x40 }
  - { offset: 0x33478, size: 0x8, addend: 0x0, symName: __ZN3fmt3v1016make_format_argsINS0_20basic_format_contextINS0_8appenderEcEEJKiS5_EEENS0_16format_arg_storeIT_JDpNSt9remove_cvINSt16remove_referenceIT0_E4typeEE4typeEEEEDpRSA_, symObjAddr: 0x9968, symBinAddr: 0x10000D7C8, symSize: 0x24 }
  - { offset: 0x334C5, size: 0x8, addend: 0x0, symName: __ZN3fmt3v1016make_format_argsINS0_20basic_format_contextINS0_8appenderEcEEJKiS5_EEENS0_16format_arg_storeIT_JDpNSt9remove_cvINSt16remove_referenceIT0_E4typeEE4typeEEEEDpRSA_, symObjAddr: 0x9968, symBinAddr: 0x10000D7C8, symSize: 0x24 }
  - { offset: 0x334FD, size: 0x8, addend: 0x0, symName: __ZN3fmt3v1016make_format_argsINS0_20basic_format_contextINS0_8appenderEcEEJKiS5_EEENS0_16format_arg_storeIT_JDpNSt9remove_cvINSt16remove_referenceIT0_E4typeEE4typeEEEEDpRSA_, symObjAddr: 0x9968, symBinAddr: 0x10000D7C8, symSize: 0x24 }
  - { offset: 0x33536, size: 0x8, addend: 0x0, symName: __ZN3fmt3v1016make_format_argsINS0_20basic_format_contextINS0_8appenderEcEEJKiS5_EEENS0_16format_arg_storeIT_JDpNSt9remove_cvINSt16remove_referenceIT0_E4typeEE4typeEEEEDpRSA_, symObjAddr: 0x9968, symBinAddr: 0x10000D7C8, symSize: 0x24 }
  - { offset: 0x335FE, size: 0x8, addend: 0x0, symName: __ZNK3fmt3v106detail6bufferIcE4dataEv, symObjAddr: 0x9960, symBinAddr: 0x10000D7C0, symSize: 0x8 }
  - { offset: 0x337DA, size: 0x8, addend: 0x0, symName: __ZN3fmt3v106detail19handle_dynamic_specINS1_17precision_checkerENS0_20basic_format_contextINS0_8appenderEcEEEEvRiNS1_7arg_refINT0_9char_typeEEERS9_, symObjAddr: 0x97C8, symBinAddr: 0x10000D628, symSize: 0xF0 }
  - { offset: 0x3383B, size: 0x8, addend: 0x0, symName: __ZN3fmt3v106detail19handle_dynamic_specINS1_13width_checkerENS0_20basic_format_contextINS0_8appenderEcEEEEvRiNS1_7arg_refINT0_9char_typeEEERS9_, symObjAddr: 0x96D8, symBinAddr: 0x10000D538, symSize: 0xF0 }
  - { offset: 0x338DE, size: 0x8, addend: 0x0, symName: __ZNK3fmt3v1016basic_format_argINS0_20basic_format_contextINS0_8appenderEcEEE4typeEv, symObjAddr: 0x96D0, symBinAddr: 0x10000D530, symSize: 0x8 }
  - { offset: 0x33909, size: 0x8, addend: 0x0, symName: __ZN3fmt3v1020basic_format_contextINS0_8appenderEcE6localeEv, symObjAddr: 0x96C8, symBinAddr: 0x10000D528, symSize: 0x8 }
  - { offset: 0x33934, size: 0x8, addend: 0x0, symName: __ZNK3fmt3v1020basic_format_contextINS0_8appenderEcE4argsEv, symObjAddr: 0x96C0, symBinAddr: 0x10000D520, symSize: 0x8 }
  - { offset: 0x3395B, size: 0x8, addend: 0x0, symName: __ZN3fmt3v106detail7get_argINS0_20basic_format_contextINS0_8appenderEcEEiEEDTcldtfp_3argfp0_EERT_T0_, symObjAddr: 0x965C, symBinAddr: 0x10000D4BC, symSize: 0x64 }
  - { offset: 0x339BD, size: 0x8, addend: 0x0, symName: __ZN3fmt3v1020basic_format_contextINS0_8appenderEcE6arg_idENS0_17basic_string_viewIcEE, symObjAddr: 0x9644, symBinAddr: 0x10000D4A4, symSize: 0x18 }
  - { offset: 0x339FA, size: 0x8, addend: 0x0, symName: __ZN3fmt3v1026basic_format_parse_contextIcE12check_arg_idEi, symObjAddr: 0x9618, symBinAddr: 0x10000D478, symSize: 0x2C }
  - { offset: 0x33A37, size: 0x8, addend: 0x0, symName: __ZN3fmt3v1020basic_format_contextINS0_8appenderEcE10advance_toES2_, symObjAddr: 0x95E8, symBinAddr: 0x10000D448, symSize: 0x30 }
  - { offset: 0x33A70, size: 0x8, addend: 0x0, symName: __ZN3fmt3v106detail5writeIcNS0_8appenderEEET0_S4_NS0_17basic_string_viewIT_EE, symObjAddr: 0x9578, symBinAddr: 0x10000D3D8, symSize: 0x70 }
  - { offset: 0x33B16, size: 0x8, addend: 0x0, symName: __ZN3fmt3v1020basic_format_contextINS0_8appenderEcEC1ES2_NS0_17basic_format_argsIS3_EENS0_6detail10locale_refE, symObjAddr: 0x9568, symBinAddr: 0x10000D3C8, symSize: 0x10 }
  - { offset: 0x33B96, size: 0x8, addend: 0x0, symName: __ZNK3fmt3v1017basic_format_argsINS0_20basic_format_contextINS0_8appenderEcEEE4typeEi, symObjAddr: 0x9554, symBinAddr: 0x10000D3B4, symSize: 0x14 }
  - { offset: 0x33BF2, size: 0x8, addend: 0x0, symName: __ZNK3fmt3v1017basic_format_argsINS0_20basic_format_contextINS0_8appenderEcEEE8max_sizeEv, symObjAddr: 0x9524, symBinAddr: 0x10000D384, symSize: 0x30 }
  - { offset: 0x33C28, size: 0x8, addend: 0x0, symName: __ZN3fmt3v106detail21parse_nonnegative_intIcEEiRPKT_S5_i, symObjAddr: 0x9450, symBinAddr: 0x10000D2B0, symSize: 0xD4 }
  - { offset: 0x33CDA, size: 0x8, addend: 0x0, symName: __ZN3fmt3v106detail18parse_dynamic_specIcEEPKT_S5_S5_RiRNS1_7arg_refIS3_EERNS0_26basic_format_parse_contextIS3_EE, symObjAddr: 0x9334, symBinAddr: 0x10000D194, symSize: 0x11C }
  - { offset: 0x33DDD, size: 0x8, addend: 0x0, symName: __ZN3fmt3v106detail6fill_tIcEixEm, symObjAddr: 0x932C, symBinAddr: 0x10000D18C, symSize: 0x8 }
  - { offset: 0x33E9A, size: 0x8, addend: 0x0, symName: __ZNSt7__cxx1112basic_stringIcSt11char_traitsIcESaIcEEC1IS3_EEmcRKS3_, symObjAddr: 0x92B8, symBinAddr: 0x10000D118, symSize: 0x74 }
  - { offset: 0x33ED7, size: 0x8, addend: 0x0, symName: __ZSt15__try_use_facetIN3fmt3v1012format_facetISt6localeEEEPKT_RKS3_, symObjAddr: 0x9208, symBinAddr: 0x10000D068, symSize: 0xB0 }
  - { offset: 0x33F2D, size: 0x8, addend: 0x0, symName: __ZN3fmt3v1019basic_memory_bufferIcLm500ESaIcEE10deallocateEv, symObjAddr: 0x91A8, symBinAddr: 0x10000D008, symSize: 0x60 }
  - { offset: 0x33F64, size: 0x8, addend: 0x0, symName: __ZN3fmt3v106detail6fill_nIcmEEPT_S4_T0_c, symObjAddr: 0x9124, symBinAddr: 0x10000CF84, symSize: 0x84 }
  - { offset: 0x33FEA, size: 0x8, addend: 0x0, symName: __ZN3fmt3v106detail6bufferIcE3setEPcm, symObjAddr: 0x9118, symBinAddr: 0x10000CF78, symSize: 0xC }
  - { offset: 0x3409A, size: 0x8, addend: 0x0, symName: __ZN3fmt3v106detail6bufferIcEC2EPcmm, symObjAddr: 0x90F8, symBinAddr: 0x10000CF58, symSize: 0x20 }
  - { offset: 0x34105, size: 0x8, addend: 0x0, symName: __ZN3fmt3v106detail8to_asciiIcLi0EEEcT_, symObjAddr: 0x90F4, symBinAddr: 0x10000CF54, symSize: 0x4 }
  - { offset: 0x343B9, size: 0x8, addend: 0x0, symName: __ZN3fmt3v1017basic_string_viewIcE13remove_prefixEm, symObjAddr: 0x905C, symBinAddr: 0x10000CEBC, symSize: 0x1C }
  - { offset: 0x343F4, size: 0x8, addend: 0x0, symName: __ZN3fmt3v1026basic_format_parse_contextIcE10advance_toEPKc, symObjAddr: 0x9024, symBinAddr: 0x10000CE84, symSize: 0x38 }
  - { offset: 0x34431, size: 0x8, addend: 0x0, symName: __ZN3fmt3v1026basic_format_parse_contextIcE11next_arg_idEv, symObjAddr: 0x8FF8, symBinAddr: 0x10000CE58, symSize: 0x2C }
  - { offset: 0x344A4, size: 0x8, addend: 0x0, symName: __ZN3fmt3v1026basic_format_parse_contextIcEC1ENS0_17basic_string_viewIcEEi, symObjAddr: 0x8FEC, symBinAddr: 0x10000CE4C, symSize: 0xC }
  - { offset: 0x344DA, size: 0x8, addend: 0x0, symName: __ZSt11__addressofIN3fmt3v106detail6bufferIcEEEPT_RS5_, symObjAddr: 0x8FD8, symBinAddr: 0x10000CE38, symSize: 0x14 }
  - { offset: 0x3450C, size: 0x8, addend: 0x0, symName: __ZN3fmt3v106detail14format_decimalIcyEENS1_21format_decimal_resultIPT_EES5_T0_i, symObjAddr: 0x8D64, symBinAddr: 0x10000CBC4, symSize: 0x274 }
  - { offset: 0x34620, size: 0x8, addend: 0x0, symName: __ZN3fmt3v106detail14format_decimalIcjEENS1_21format_decimal_resultIPT_EES5_T0_i, symObjAddr: 0x8B10, symBinAddr: 0x10000C970, symSize: 0x254 }
  - { offset: 0x34738, size: 0x8, addend: 0x0, symName: __ZN3fmt3v106detail6bufferIcE11try_reserveEm, symObjAddr: 0x8AE4, symBinAddr: 0x10000C944, symSize: 0x2C }
  - { offset: 0x34775, size: 0x8, addend: 0x0, symName: __ZN3fmt3v106detail6bigint8multiplyIoLi0EEEvT_, symObjAddr: 0x880C, symBinAddr: 0x10000C66C, symSize: 0x2D8 }
  - { offset: 0x34867, size: 0x8, addend: 0x0, symName: __ZN3fmt3v106detail6bigint6assignIoLi0EEEvT_, symObjAddr: 0x876C, symBinAddr: 0x10000C5CC, symSize: 0xA0 }
  - { offset: 0x348B8, size: 0x8, addend: 0x0, symName: __ZNSt22__uninitialized_fill_nILb1EE15__uninit_fill_nIPjiiEET_S3_T0_RKT1_, symObjAddr: 0x8740, symBinAddr: 0x10000C5A0, symSize: 0x2C }
  - { offset: 0x34923, size: 0x8, addend: 0x0, symName: __ZN3fmt3v1019basic_memory_bufferIjLm32ESaIjEE4moveERS3_, symObjAddr: 0x8650, symBinAddr: 0x10000C4B0, symSize: 0xF0 }
  - { offset: 0x34991, size: 0x8, addend: 0x0, symName: __ZNK3fmt3v106detail6bufferIjE8capacityEv, symObjAddr: 0x8648, symBinAddr: 0x10000C4A8, symSize: 0x8 }
  - { offset: 0x349BC, size: 0x8, addend: 0x0, symName: __ZN3fmt3v1019basic_memory_bufferIjLm32ESaIjEE10deallocateEv, symObjAddr: 0x85E8, symBinAddr: 0x10000C448, symSize: 0x60 }
  - { offset: 0x349F3, size: 0x8, addend: 0x0, symName: __ZN3fmt3v106detail6fill_nIPjmjEET_S4_T0_RKT1_, symObjAddr: 0x8590, symBinAddr: 0x10000C3F0, symSize: 0x58 }
  - { offset: 0x34A82, size: 0x8, addend: 0x0, symName: __ZN3fmt3v106detail6bufferIjE3setEPjm, symObjAddr: 0x8584, symBinAddr: 0x10000C3E4, symSize: 0xC }
  - { offset: 0x34B32, size: 0x8, addend: 0x0, symName: __ZN3fmt3v106detail6bufferIjEC2EPjmm, symObjAddr: 0x8564, symBinAddr: 0x10000C3C4, symSize: 0x20 }
  - { offset: 0x34B93, size: 0x8, addend: 0x0, symName: __ZNSt15__new_allocatorIjED2Ev, symObjAddr: 0x8550, symBinAddr: 0x10000C3B0, symSize: 0x14 }
  - { offset: 0x34BCF, size: 0x8, addend: 0x0, symName: __ZN3fmt3v106detail6bufferIjE11try_reserveEm, symObjAddr: 0x8524, symBinAddr: 0x10000C384, symSize: 0x2C }
  - { offset: 0x34C0C, size: 0x8, addend: 0x0, symName: __ZN3fmt3v106detail6bufferIjE10try_resizeEm, symObjAddr: 0x84EC, symBinAddr: 0x10000C34C, symSize: 0x38 }
  - { offset: 0x34C45, size: 0x8, addend: 0x0, symName: __ZN3fmt3v106detail8copy_strIcKccLi0EEEPT1_PT0_S7_S5_, symObjAddr: 0x849C, symBinAddr: 0x10000C2FC, symSize: 0x50 }
  - { offset: 0x34CC1, size: 0x8, addend: 0x0, symName: __ZSt17throw_with_nestedISt13runtime_errorEvOT_, symObjAddr: 0x8454, symBinAddr: 0x10000C2B4, symSize: 0x48 }
  - { offset: 0x34D1E, size: 0x8, addend: 0x0, symName: __ZNSt17_Nested_exceptionISt13runtime_errorED0Ev, symObjAddr: 0x8424, symBinAddr: 0x10000C284, symSize: 0x28 }
  - { offset: 0x34D48, size: 0x8, addend: 0x0, symName: __ZNSt17_Nested_exceptionISt13runtime_errorED1Ev, symObjAddr: 0x83C8, symBinAddr: 0x10000C228, symSize: 0x54 }
  - { offset: 0x34D6E, size: 0x8, addend: 0x0, symName: __ZNSt7__cxx1112basic_stringIcSt11char_traitsIcESaIcEE12_M_constructIPKcEEvT_S8_St20forward_iterator_tag, symObjAddr: 0x82C8, symBinAddr: 0x10000C128, symSize: 0x100 }
  - { offset: 0x34E76, size: 0x8, addend: 0x0, symName: __ZZNSt7__cxx1112basic_stringIcSt11char_traitsIcESaIcEE12_M_constructIPKcEEvT_S8_St20forward_iterator_tagEN6_GuardC1EPS4_, symObjAddr: 0x8270, symBinAddr: 0x10000C0D0, symSize: 0x24 }
  - { offset: 0x34EA9, size: 0x8, addend: 0x0, symName: __ZZNSt7__cxx1112basic_stringIcSt11char_traitsIcESaIcEE12_M_constructIPKcEEvT_S8_St20forward_iterator_tagEN6_GuardD1Ev, symObjAddr: 0x8294, symBinAddr: 0x10000C0F4, symSize: 0x34 }
  - { offset: 0x34FA9, size: 0x8, addend: 0x0, symName: __ZNSt15__new_allocatorIcED2Ev, symObjAddr: 0x825C, symBinAddr: 0x10000C0BC, symSize: 0x14 }
  - { offset: 0x3500D, size: 0x8, addend: 0x0, symName: __ZN9__gnu_cxx11char_traitsIcE2eqERKcS3_, symObjAddr: 0x822C, symBinAddr: 0x10000C08C, symSize: 0x30 }
  - { offset: 0x35082, size: 0x8, addend: 0x0, symName: __ZNSt8functionIFvvEEC1IRS0_vEEOT_, symObjAddr: 0x81A0, symBinAddr: 0x10000C000, symSize: 0x8C }
  - { offset: 0x3520F, size: 0x8, addend: 0x0, symName: __ZSt4moveIRNSt7__cxx1112basic_stringIcSt11char_traitsIcESaIcEEEEONSt16remove_referenceIT_E4typeEOS8_, symObjAddr: 0x818C, symBinAddr: 0x10000BFEC, symSize: 0x14 }
  - { offset: 0x3528C, size: 0x8, addend: 0x0, symName: __ZNSt7__cxx1112basic_stringIcSt11char_traitsIcESaIcEEC1IS3_EEPKcRKS3_, symObjAddr: 0x80F0, symBinAddr: 0x10000BF50, symSize: 0x9C }
  - { offset: 0x35329, size: 0x8, addend: 0x0, symName: __ZNSt8functionIFvRKSt9exceptionEEC1IZN15fsm_definitions18exception_handling25with_exceptions_displayedERKS_IFvvEEEUlS2_E_vEEOT_, symObjAddr: 0x8064, symBinAddr: 0x10000BEC4, symSize: 0x8C }
  - { offset: 0x3537E, size: 0x8, addend: 0x0, symName: __ZN15fsm_definitions9stream_io6put_toIJPKcS3_EEEvP7__sFILEN3fmt3v1019basic_format_stringIcJDpNS7_13type_identityIT_E4typeEEEEDpOSA_, symObjAddr: 0x7F88, symBinAddr: 0x10000BDE8, symSize: 0xDC }
  - { offset: 0x354BF, size: 0x8, addend: 0x0, symName: __ZNKSt8functionIFvvEEclEv, symObjAddr: 0x7F48, symBinAddr: 0x10000BDA8, symSize: 0x40 }
  - { offset: 0x35574, size: 0x8, addend: 0x0, symName: __ZNSt17basic_string_viewIcSt11char_traitsIcEEC1EPKc, symObjAddr: 0x7F0C, symBinAddr: 0x10000BD6C, symSize: 0x3C }
  - { offset: 0x355CB, size: 0x8, addend: 0x0, symName: __ZNSt8functionIFvRKSt9exceptionEEC1ERKS4_, symObjAddr: 0x7E68, symBinAddr: 0x10000BCC8, symSize: 0xA4 }
  - { offset: 0x35614, size: 0x8, addend: 0x0, symName: __ZNSt14_Function_baseC2Ev, symObjAddr: 0x7E44, symBinAddr: 0x10000BCA4, symSize: 0x24 }
  - { offset: 0x3563A, size: 0x8, addend: 0x0, symName: __ZNKSt8functionIFvRKSt9exceptionEEclES2_, symObjAddr: 0x7DE8, symBinAddr: 0x10000BC48, symSize: 0x5C }
  - { offset: 0x35671, size: 0x8, addend: 0x0, symName: __ZSt17rethrow_if_nestedISt9exceptionEvRKT_, symObjAddr: 0x7D84, symBinAddr: 0x10000BBE4, symSize: 0x64 }
  - { offset: 0x35745, size: 0x8, addend: 0x0, symName: __ZN3fmt3v109to_stringIcLm500EEENSt7__cxx1112basic_stringIT_St11char_traitsIS4_ESaIS4_EEERKNS0_19basic_memory_bufferIS4_XT0_ES7_EE, symObjAddr: 0x7CA8, symBinAddr: 0x10000BB08, symSize: 0xDC }
  - { offset: 0x35840, size: 0x8, addend: 0x0, symName: __ZN3fmt3v106detail10vformat_toIcEEvRNS1_6bufferIT_EENS0_17basic_string_viewIS4_EENS1_12vformat_argsIS4_E4typeENS1_10locale_refE, symObjAddr: 0x78D8, symBinAddr: 0x10000B738, symSize: 0x3D0 }
  - { offset: 0x359A7, size: 0x8, addend: 0x0, symName: __ZZN3fmt3v106detail10vformat_toIcEEvRNS1_6bufferIT_EENS0_17basic_string_viewIS4_EENS1_12vformat_argsIS4_E4typeENS1_10locale_refEEN14format_handler7on_textEPKcSF_, symObjAddr: 0x68F8, symBinAddr: 0x10000A758, symSize: 0x58 }
  - { offset: 0x35A13, size: 0x8, addend: 0x0, symName: __ZZN3fmt3v106detail10vformat_toIcEEvRNS1_6bufferIT_EENS0_17basic_string_viewIS4_EENS1_12vformat_argsIS4_E4typeENS1_10locale_refEEN14format_handler9on_arg_idEv, symObjAddr: 0x6950, symBinAddr: 0x10000A7B0, symSize: 0x14 }
  - { offset: 0x35A4A, size: 0x8, addend: 0x0, symName: __ZZN3fmt3v106detail10vformat_toIcEEvRNS1_6bufferIT_EENS0_17basic_string_viewIS4_EENS1_12vformat_argsIS4_E4typeENS1_10locale_refEEN14format_handler9on_arg_idEi, symObjAddr: 0x6964, symBinAddr: 0x10000A7C4, symSize: 0x24 }
  - { offset: 0x35A93, size: 0x8, addend: 0x0, symName: __ZZN3fmt3v106detail10vformat_toIcEEvRNS1_6bufferIT_EENS0_17basic_string_viewIS4_EENS1_12vformat_argsIS4_E4typeENS1_10locale_refEEN14format_handler9on_arg_idENS7_IcEE, symObjAddr: 0x6988, symBinAddr: 0x10000A7E8, symSize: 0x38 }
  - { offset: 0x35B2D, size: 0x8, addend: 0x0, symName: __ZZN3fmt3v106detail10vformat_toIcEEvRNS1_6bufferIT_EENS0_17basic_string_viewIS4_EENS1_12vformat_argsIS4_E4typeENS1_10locale_refEEN14format_handler15on_format_specsEiPKcSF_, symObjAddr: 0x69C0, symBinAddr: 0x10000A820, symSize: 0xE80 }
  - { offset: 0x360DF, size: 0x8, addend: 0x0, symName: __ZZN3fmt3v106detail10vformat_toIcEEvRNS1_6bufferIT_EENS0_17basic_string_viewIS4_EENS1_12vformat_argsIS4_E4typeENS1_10locale_refEEN14format_handlerC1ENS0_8appenderENS7_IcEENS0_17basic_format_argsINS0_20basic_format_contextISE_cEEEESC_, symObjAddr: 0x6894, symBinAddr: 0x10000A6F4, symSize: 0x64 }
  - { offset: 0x3624D, size: 0x8, addend: 0x0, symName: __ZN3fmt3v106detail7arg_refIcE5valueC1Ei, symObjAddr: 0x78D0, symBinAddr: 0x10000B730, symSize: 0x8 }
  - { offset: 0x36294, size: 0x8, addend: 0x0, symName: __ZN3fmt3v1012format_specsIcEC1Ev, symObjAddr: 0x7884, symBinAddr: 0x10000B6E4, symSize: 0x4C }
  - { offset: 0x362D9, size: 0x8, addend: 0x0, symName: __ZN3fmt3v106detail6fill_tIcEC1Ev, symObjAddr: 0x7840, symBinAddr: 0x10000B6A0, symSize: 0x44 }
  - { offset: 0x362FF, size: 0x8, addend: 0x0, symName: __ZNK3fmt3v1016basic_format_argINS0_20basic_format_contextINS0_8appenderEcEEEcvbEv, symObjAddr: 0x6884, symBinAddr: 0x10000A6E4, symSize: 0x10 }
  - { offset: 0x3632A, size: 0x8, addend: 0x0, symName: __ZNK3fmt3v1017basic_format_argsINS0_20basic_format_contextINS0_8appenderEcEEE3getEi, symObjAddr: 0x67EC, symBinAddr: 0x10000A64C, symSize: 0x98 }
  - { offset: 0x36378, size: 0x8, addend: 0x0, symName: __ZNK3fmt3v1017basic_format_argsINS0_20basic_format_contextINS0_8appenderEcEEE9is_packedEv, symObjAddr: 0x67DC, symBinAddr: 0x10000A63C, symSize: 0x10 }
  - { offset: 0x363BD, size: 0x8, addend: 0x0, symName: __ZN3fmt3v1016basic_format_argINS0_20basic_format_contextINS0_8appenderEcEEEC1Ev, symObjAddr: 0x67D4, symBinAddr: 0x10000A634, symSize: 0x8 }
  - { offset: 0x36406, size: 0x8, addend: 0x0, symName: __ZNK3fmt3v1026basic_format_parse_contextIcE5beginEv, symObjAddr: 0x67C0, symBinAddr: 0x10000A620, symSize: 0x14 }
  - { offset: 0x36437, size: 0x8, addend: 0x0, symName: __ZN3fmt3v109loc_value5visitINS0_6detail10loc_writerIcEEEEDTclfp_Li0EEEOT_, symObjAddr: 0x6550, symBinAddr: 0x10000A3B0, symSize: 0x270 }
  - { offset: 0x364F7, size: 0x8, addend: 0x0, symName: __ZN3fmt3v1012format_facetISt6localeEC1ERS2_, symObjAddr: 0x63F0, symBinAddr: 0x10000A250, symSize: 0x160 }
  - { offset: 0x365CC, size: 0x8, addend: 0x0, symName: __ZNK3fmt3v1012format_facetISt6localeE3putENS0_8appenderENS0_9loc_valueERKNS0_12format_specsIcEE, symObjAddr: 0x6388, symBinAddr: 0x10000A1E8, symSize: 0x68 }
  - { offset: 0x36625, size: 0x8, addend: 0x0, symName: __ZSt9use_facetIN3fmt3v1012format_facetISt6localeEEERKT_RKS3_, symObjAddr: 0x6350, symBinAddr: 0x10000A1B0, symSize: 0x38 }
  - { offset: 0x3667A, size: 0x8, addend: 0x0, symName: __ZSt9has_facetIN3fmt3v1012format_facetISt6localeEEEbRKS3_, symObjAddr: 0x6328, symBinAddr: 0x10000A188, symSize: 0x28 }
  - { offset: 0x366B0, size: 0x8, addend: 0x0, symName: __ZNK3fmt3v106detail10locale_ref3getISt6localeEET_v, symObjAddr: 0x62EC, symBinAddr: 0x10000A14C, symSize: 0x3C }
  - { offset: 0x36708, size: 0x8, addend: 0x0, symName: __ZN3fmt3v1019basic_memory_bufferIcLm500ESaIcEED1Ev, symObjAddr: 0x62A0, symBinAddr: 0x10000A100, symSize: 0x4C }
  - { offset: 0x3677A, size: 0x8, addend: 0x0, symName: __ZN3fmt3v1019basic_memory_bufferIcLm500ESaIcEEC1ERKS2_, symObjAddr: 0x61B8, symBinAddr: 0x10000A018, symSize: 0xE8 }
  - { offset: 0x36872, size: 0x8, addend: 0x0, symName: __ZNSt20back_insert_iteratorIN3fmt3v106detail6bufferIcEEEC2ERS4_, symObjAddr: 0x6188, symBinAddr: 0x100009FE8, symSize: 0x30 }
  - { offset: 0x3689D, size: 0x8, addend: 0x0, symName: __ZN3fmt3v106detail11is_negativeIiLi0EEEbT_, symObjAddr: 0x616C, symBinAddr: 0x100009FCC, symSize: 0x1C }
  - { offset: 0x368D0, size: 0x8, addend: 0x0, symName: __ZN3fmt3v106detail8num_bitsImEEiv, symObjAddr: 0x6164, symBinAddr: 0x100009FC4, symSize: 0x8 }
  - { offset: 0x368F6, size: 0x8, addend: 0x0, symName: __ZN3fmt3v106detail6bufferIcE9push_backERKc, symObjAddr: 0x6120, symBinAddr: 0x100009F80, symSize: 0x44 }
  - { offset: 0x36933, size: 0x8, addend: 0x0, symName: __ZN3fmt3v106detail6bufferIcE10try_resizeEm, symObjAddr: 0x60E8, symBinAddr: 0x100009F48, symSize: 0x38 }
  - { offset: 0x36970, size: 0x8, addend: 0x0, symName: __ZN3fmt3v106detail6bigintaSIyEEvT_, symObjAddr: 0x609C, symBinAddr: 0x100009EFC, symSize: 0x4C }
  - { offset: 0x369B4, size: 0x8, addend: 0x0, symName: __ZN3fmt3v106detail6bigintmLIoEERS2_T_, symObjAddr: 0x6048, symBinAddr: 0x100009EA8, symSize: 0x54 }
  - { offset: 0x369F8, size: 0x8, addend: 0x0, symName: __ZN3fmt3v106detail6bigintaSIoEEvT_, symObjAddr: 0x5FF4, symBinAddr: 0x100009E54, symSize: 0x54 }
  - { offset: 0x36A38, size: 0x8, addend: 0x0, symName: __ZSt20uninitialized_fill_nIPjiiET_S1_T0_RKT1_, symObjAddr: 0x5FC0, symBinAddr: 0x100009E20, symSize: 0x34 }
  - { offset: 0x36AB4, size: 0x8, addend: 0x0, symName: __ZN3fmt3v106detail6bufferIjEixIiEERjT_, symObjAddr: 0x5FB4, symBinAddr: 0x100009E14, symSize: 0xC }
  - { offset: 0x36B20, size: 0x8, addend: 0x0, symName: __ZN3fmt3v1019basic_memory_bufferIjLm32ESaIjEEC1EOS3_, symObjAddr: 0x5F48, symBinAddr: 0x100009DA8, symSize: 0x6C }
  - { offset: 0x36B98, size: 0x8, addend: 0x0, symName: __ZSt4moveIRN3fmt3v1019basic_memory_bufferIjLm32ESaIjEEEEONSt16remove_referenceIT_E4typeEOS7_, symObjAddr: 0x5F34, symBinAddr: 0x100009D94, symSize: 0x14 }
  - { offset: 0x36BCE, size: 0x8, addend: 0x0, symName: __ZN3fmt3v106detail6bigintmLIiEERS2_T_, symObjAddr: 0x5EE4, symBinAddr: 0x100009D44, symSize: 0x50 }
  - { offset: 0x36C12, size: 0x8, addend: 0x0, symName: __ZN3fmt3v106detail6bigintaSIiEEvT_, symObjAddr: 0x5E94, symBinAddr: 0x100009CF4, symSize: 0x50 }
  - { offset: 0x36C52, size: 0x8, addend: 0x0, symName: __ZN3fmt3v106detail8copy_strIjPKjPjEET1_T0_S7_S6_, symObjAddr: 0x5E74, symBinAddr: 0x100009CD4, symSize: 0x20 }
  - { offset: 0x36CBE, size: 0x8, addend: 0x0, symName: __ZN3fmt3v106detail6bufferIjE4dataEv, symObjAddr: 0x5E6C, symBinAddr: 0x100009CCC, symSize: 0x8 }
  - { offset: 0x36CE9, size: 0x8, addend: 0x0, symName: __ZN3fmt3v106detail6bigint6assignIyLi0EEEvT_, symObjAddr: 0x5DF0, symBinAddr: 0x100009C50, symSize: 0x7C }
  - { offset: 0x36D62, size: 0x8, addend: 0x0, symName: __ZN3fmt3v1019basic_memory_bufferIjLm32ESaIjEED1Ev, symObjAddr: 0x5DA4, symBinAddr: 0x100009C04, symSize: 0x4C }
  - { offset: 0x36DD4, size: 0x8, addend: 0x0, symName: __ZN3fmt3v1019basic_memory_bufferIjLm32ESaIjEEC1ERKS2_, symObjAddr: 0x5CE4, symBinAddr: 0x100009B44, symSize: 0xC0 }
  - { offset: 0x36EB6, size: 0x8, addend: 0x0, symName: __ZN3fmt3v106detail6bufferIjE9push_backERKj, symObjAddr: 0x5CA0, symBinAddr: 0x100009B00, symSize: 0x44 }
  - { offset: 0x36EF3, size: 0x8, addend: 0x0, symName: __ZN3fmt3v106detail6bufferIjEixImEERjT_, symObjAddr: 0x5C94, symBinAddr: 0x100009AF4, symSize: 0xC }
  - { offset: 0x36F37, size: 0x8, addend: 0x0, symName: __ZNK3fmt3v106detail6bufferIjEixImEERKjT_, symObjAddr: 0x5C88, symBinAddr: 0x100009AE8, symSize: 0xC }
  - { offset: 0x36F7B, size: 0x8, addend: 0x0, symName: __ZN3fmt3v1019basic_memory_bufferIjLm32ESaIjEE6resizeEm, symObjAddr: 0x5C60, symBinAddr: 0x100009AC0, symSize: 0x28 }
  - { offset: 0x36FB6, size: 0x8, addend: 0x0, symName: __ZN3fmt3v106detail6bufferIjEixIjEERjT_, symObjAddr: 0x5C54, symBinAddr: 0x100009AB4, symSize: 0xC }
  - { offset: 0x36FFA, size: 0x8, addend: 0x0, symName: __ZNK3fmt3v106detail6bufferIjEixIjEERKjT_, symObjAddr: 0x5C48, symBinAddr: 0x100009AA8, symSize: 0xC }
  - { offset: 0x37040, size: 0x8, addend: 0x0, symName: __ZN3fmt3v106detail18for_each_codepointIZNS1_11find_escapeEPKcS4_EUljNS0_17basic_string_viewIcEEE_EEvS6_T_, symObjAddr: 0x5AD0, symBinAddr: 0x100009930, symSize: 0x178 }
  - { offset: 0x37118, size: 0x8, addend: 0x0, symName: __ZZN3fmt3v106detail18for_each_codepointIZNS1_11find_escapeEPKcS4_EUljNS0_17basic_string_viewIcEEE_EEvS6_T_ENKUlS4_S4_E_clES4_S4_, symObjAddr: 0x59E8, symBinAddr: 0x100009848, symSize: 0xE8 }
  - { offset: 0x37277, size: 0x8, addend: 0x0, symName: __ZN3fmt3v106detail11find_escapeIcEENS1_18find_escape_resultIT_EEPKS4_S7_, symObjAddr: 0x590C, symBinAddr: 0x10000976C, symSize: 0xDC }
  - { offset: 0x37322, size: 0x8, addend: 0x0, symName: __ZN3fmt3v106detail21count_digits_fallbackIjEEiT_, symObjAddr: 0x5868, symBinAddr: 0x1000096C8, symSize: 0xA4 }
  - { offset: 0x37366, size: 0x8, addend: 0x0, symName: __ZN3fmt3v106detail21count_digits_fallbackIyEEiT_, symObjAddr: 0x57C0, symBinAddr: 0x100009620, symSize: 0xA8 }
  - { offset: 0x373AA, size: 0x8, addend: 0x0, symName: __ZN3fmt3v106detail21count_digits_fallbackIoEEiT_, symObjAddr: 0x56C0, symBinAddr: 0x100009520, symSize: 0x100 }
  - { offset: 0x37428, size: 0x8, addend: 0x0, symName: __ZN3fmt3v1017basic_string_viewIcEC1EPKcm, symObjAddr: 0x56B4, symBinAddr: 0x100009514, symSize: 0xC }
  - { offset: 0x3745F, size: 0x8, addend: 0x0, symName: __ZN3fmt3v106detail18for_each_codepointIZNS1_13compute_widthENS0_17basic_string_viewIcEEE17count_code_pointsEEvS4_T_, symObjAddr: 0x553C, symBinAddr: 0x10000939C, symSize: 0x178 }
  - { offset: 0x37537, size: 0x8, addend: 0x0, symName: __ZZN3fmt3v106detail18for_each_codepointIZNS1_13compute_widthENS0_17basic_string_viewIcEEE17count_code_pointsEEvS4_T_ENKUlPKcS8_E_clES8_S8_, symObjAddr: 0x5454, symBinAddr: 0x1000092B4, symSize: 0xE8 }
  - { offset: 0x37696, size: 0x8, addend: 0x0, symName: __ZN3fmt3v106detail20countl_zero_fallbackIyEEiT_, symObjAddr: 0x540C, symBinAddr: 0x10000926C, symSize: 0x48 }
  - { offset: 0x376EB, size: 0x8, addend: 0x0, symName: __ZN3fmt3v106detail8num_bitsIyEEiv, symObjAddr: 0x5404, symBinAddr: 0x100009264, symSize: 0x8 }
  - { offset: 0x3770D, size: 0x8, addend: 0x0, symName: __ZN3fmt3v106detail20countl_zero_fallbackIjEEiT_, symObjAddr: 0x53BC, symBinAddr: 0x10000921C, symSize: 0x48 }
  - { offset: 0x37762, size: 0x8, addend: 0x0, symName: __ZN3fmt3v106detail13ignore_unusedIJbEEEvDpRKT_, symObjAddr: 0x53B8, symBinAddr: 0x100009218, symSize: 0x4 }
  - { offset: 0x37795, size: 0x8, addend: 0x0, symName: __ZN3fmt3v106detail11to_unsignedIlEENSt13make_unsignedIT_E4typeES4_, symObjAddr: 0x5390, symBinAddr: 0x1000091F0, symSize: 0x28 }
  - { offset: 0x377CD, size: 0x8, addend: 0x0, symName: __ZNKSt17basic_string_viewIcSt11char_traitsIcEE6substrEmm, symObjAddr: 0x5308, symBinAddr: 0x100009168, symSize: 0x88 }
  - { offset: 0x37826, size: 0x8, addend: 0x0, symName: __ZN15fsm_definitions18exception_handling5fail_ISt13runtime_errorJEEEbRKNSt7__cxx1112basic_stringIcSt11char_traitsIcESaIcEEEDpOT0_, symObjAddr: 0x525C, symBinAddr: 0x1000090BC, symSize: 0xAC }
  - { offset: 0x378D3, size: 0x8, addend: 0x0, symName: __ZNSt7__cxx1112basic_stringIcSt11char_traitsIcESaIcEE12_Alloc_hiderD1Ev, symObjAddr: 0x5230, symBinAddr: 0x100009090, symSize: 0x2C }
  - { offset: 0x37950, size: 0x8, addend: 0x0, symName: __ZNSt17basic_string_viewIcSt11char_traitsIcEEC1EPKcm, symObjAddr: 0x51FC, symBinAddr: 0x10000905C, symSize: 0x34 }
  - { offset: 0x37984, size: 0x8, addend: 0x0, symName: __ZN9__gnu_cxx11char_traitsIcE4findEPKcmRS2_, symObjAddr: 0x5188, symBinAddr: 0x100008FE8, symSize: 0x74 }
  - { offset: 0x379F0, size: 0x8, addend: 0x0, symName: __ZN9__gnu_cxx11char_traitsIcE6lengthEPKc, symObjAddr: 0x5130, symBinAddr: 0x100008F90, symSize: 0x58 }
  - { offset: 0x37A30, size: 0x8, addend: 0x0, symName: _main, symObjAddr: 0x50D0, symBinAddr: 0x100008F30, symSize: 0x60 }
  - { offset: 0x37A74, size: 0x8, addend: 0x0, symName: __ZNSt8functionIFvvEED1Ev, symObjAddr: 0x50B0, symBinAddr: 0x100008F10, symSize: 0x20 }
  - { offset: 0x37AC6, size: 0x8, addend: 0x0, symName: __ZN3app9top_levelEv, symObjAddr: 0x4FC4, symBinAddr: 0x100008E24, symSize: 0xEC }
  - { offset: 0x37BDB, size: 0x8, addend: 0x0, symName: __ZN3app12intermediateEv, symObjAddr: 0x4ED8, symBinAddr: 0x100008D38, symSize: 0xEC }
  - { offset: 0x37D01, size: 0x8, addend: 0x0, symName: __ZN3app21fundamental_operationEv, symObjAddr: 0x4E14, symBinAddr: 0x100008C74, symSize: 0xC4 }
  - { offset: 0x37E27, size: 0x8, addend: 0x0, symName: __ZN15fsm_definitions18exception_handling25with_exceptions_displayedERKSt8functionIFvvEE, symObjAddr: 0x4CE8, symBinAddr: 0x100008B48, symSize: 0x12C }
  - { offset: 0x37E92, size: 0x8, addend: 0x0, symName: __ZZN15fsm_definitions18exception_handling25with_exceptions_displayedERKSt8functionIFvvEEENKUlRKSt9exceptionE_clES8_, symObjAddr: 0x4C34, symBinAddr: 0x100008A94, symSize: 0xB4 }
  - { offset: 0x37F3E, size: 0x8, addend: 0x0, symName: __ZN15fsm_definitions9stream_io3putERKSt17basic_string_viewIcSt11char_traitsIcEE, symObjAddr: 0x4C08, symBinAddr: 0x100008A68, symSize: 0x2C }
  - { offset: 0x37F67, size: 0x8, addend: 0x0, symName: __ZN15fsm_definitions9stream_io6put_toEP7__sFILERKSt17basic_string_viewIcSt11char_traitsIcEE, symObjAddr: 0x4A24, symBinAddr: 0x100008884, symSize: 0x1E4 }
  - { offset: 0x37FAE, size: 0x8, addend: 0x0, symName: __ZZN15fsm_definitions9stream_io6put_toEP7__sFILERKSt17basic_string_viewIcSt11char_traitsIcEEE5a_fix, symObjAddr: 0x25F50, symBinAddr: 0x100040040, symSize: 0x0 }
  - { offset: 0x380DE, size: 0x8, addend: 0x0, symName: __ZNKSt17basic_string_viewIcSt11char_traitsIcEE4sizeEv, symObjAddr: 0x4A0C, symBinAddr: 0x10000886C, symSize: 0x18 }
  - { offset: 0x38122, size: 0x8, addend: 0x0, symName: __ZN15fsm_definitions20Console_encoding_fixC1Ev, symObjAddr: 0x49EC, symBinAddr: 0x10000884C, symSize: 0x20 }
  - { offset: 0x3816C, size: 0x8, addend: 0x0, symName: __ZN15fsm_definitions20Console_encoding_fixD1Ev, symObjAddr: 0x49D8, symBinAddr: 0x100008838, symSize: 0x14 }
  - { offset: 0x3818E, size: 0x8, addend: 0x0, symName: __ZN15fsm_definitions18exception_handling21for_each_exception_inERKSt9exceptionSt8functionIFvS3_EE, symObjAddr: 0x4964, symBinAddr: 0x1000087C4, symSize: 0x74 }
  - { offset: 0x381F4, size: 0x8, addend: 0x0, symName: __ZNSt8functionIFvRKSt9exceptionEED1Ev, symObjAddr: 0x4944, symBinAddr: 0x1000087A4, symSize: 0x20 }
  - { offset: 0x38216, size: 0x8, addend: 0x0, symName: __ZN15fsm_definitions18exception_handling28for_each_nested_exception_inERKSt9exceptionSt8functionIFvS3_EE, symObjAddr: 0x47FC, symBinAddr: 0x10000865C, symSize: 0x148 }
  - { offset: 0x382A2, size: 0x8, addend: 0x0, symName: __ZN15fsm_definitions18exception_handling17Unknown_exceptionD0Ev, symObjAddr: 0x47D4, symBinAddr: 0x100008634, symSize: 0x28 }
  - { offset: 0x382CC, size: 0x8, addend: 0x0, symName: __ZN15fsm_definitions18exception_handling17Unknown_exceptionD1Ev, symObjAddr: 0x4794, symBinAddr: 0x1000085F4, symSize: 0x40 }
  - { offset: 0x382EE, size: 0x8, addend: 0x0, symName: __ZN15fsm_definitions18exception_handling25rethrow_if_nested_pointeeERKNSt15__exception_ptr13exception_ptrE, symObjAddr: 0x4708, symBinAddr: 0x100008568, symSize: 0x8C }
  - { offset: 0x38332, size: 0x8, addend: 0x0, symName: __ZNK15fsm_definitions18exception_handling17Unknown_exception4whatEv, symObjAddr: 0x46F0, symBinAddr: 0x100008550, symSize: 0x18 }
  - { offset: 0x38383, size: 0x8, addend: 0x0, symName: __ZN15fsm_definitions18exception_handling17Unknown_exceptionC1ERKNSt15__exception_ptr13exception_ptrE, symObjAddr: 0x46A8, symBinAddr: 0x100008508, symSize: 0x48 }
  - { offset: 0x383AE, size: 0x8, addend: 0x0, symName: __ZSt3minImERKT_S2_S2_, symObjAddr: 0x4670, symBinAddr: 0x1000084D0, symSize: 0x38 }
  - { offset: 0x383F4, size: 0x8, addend: 0x0, symName: __ZNKSt14_Function_base8_M_emptyEv, symObjAddr: 0x464C, symBinAddr: 0x1000084AC, symSize: 0x24 }
  - { offset: 0x38442, size: 0x8, addend: 0x0, symName: __ZNSt14_Function_baseD2Ev, symObjAddr: 0x460C, symBinAddr: 0x10000846C, symSize: 0x40 }
  - { offset: 0x3846C, size: 0x8, addend: 0x0, symName: __ZNKSt9_Any_data9_M_accessEv, symObjAddr: 0x45F8, symBinAddr: 0x100008458, symSize: 0x14 }
  - { offset: 0x3849A, size: 0x8, addend: 0x0, symName: __ZNSt9_Any_data9_M_accessEv, symObjAddr: 0x45E4, symBinAddr: 0x100008444, symSize: 0x14 }
  - { offset: 0x384DE, size: 0x8, addend: 0x0, symName: __ZN15fsm_definitions11class_kinds15No_copy_or_moveC2Ev, symObjAddr: 0x45D0, symBinAddr: 0x100008430, symSize: 0x14 }
  - { offset: 0x38504, size: 0x8, addend: 0x0, symName: __ZNK15fsm_definitions7fmt_lib15Fmt_lib_version9to_stringB5cxx11Ev, symObjAddr: 0x451C, symBinAddr: 0x10000837C, symSize: 0xB4 }
  - { offset: 0x38623, size: 0x8, addend: 0x0, symName: __ZN3fmt3v106detail12is_printableEj, symObjAddr: 0x42FC, symBinAddr: 0x10000815C, symSize: 0x220 }
  - { offset: 0x3865A, size: 0x8, addend: 0x0, symName: __ZZN3fmt3v106detail12is_printableEjE11singletons0, symObjAddr: 0x24948, symBinAddr: 0x10002C0A8, symSize: 0x0 }
  - { offset: 0x38676, size: 0x8, addend: 0x0, symName: __ZZN3fmt3v106detail12is_printableEjE17singletons0_lower, symObjAddr: 0x249A0, symBinAddr: 0x10002C100, symSize: 0x0 }
  - { offset: 0x38692, size: 0x8, addend: 0x0, symName: __ZZN3fmt3v106detail12is_printableEjE11singletons1, symObjAddr: 0x24AC2, symBinAddr: 0x10002C222, symSize: 0x0 }
  - { offset: 0x386AE, size: 0x8, addend: 0x0, symName: __ZZN3fmt3v106detail12is_printableEjE17singletons1_lower, symObjAddr: 0x24B10, symBinAddr: 0x10002C270, symSize: 0x0 }
  - { offset: 0x386CA, size: 0x8, addend: 0x0, symName: __ZZN3fmt3v106detail12is_printableEjE7normal0, symObjAddr: 0x24BC0, symBinAddr: 0x10002C320, symSize: 0x0 }
  - { offset: 0x386E6, size: 0x8, addend: 0x0, symName: __ZZN3fmt3v106detail12is_printableEjE7normal1, symObjAddr: 0x24CF8, symBinAddr: 0x10002C458, symSize: 0x0 }
  - { offset: 0x38778, size: 0x8, addend: 0x0, symName: __ZN3fmt3v106detail12is_printableEtPKNS1_9singletonEmPKhS6_m, symObjAddr: 0x4124, symBinAddr: 0x100007F84, symSize: 0x1D8 }
  - { offset: 0x388FF, size: 0x8, addend: 0x0, symName: __ZN3fmt3v107vformatB5cxx11ENS0_17basic_string_viewIcEENS0_17basic_format_argsINS0_20basic_format_contextINS0_8appenderEcEEEE, symObjAddr: 0x406C, symBinAddr: 0x100007ECC, symSize: 0xB8 }
  - { offset: 0x3899C, size: 0x8, addend: 0x0, symName: __ZN3fmt3v1020basic_format_contextINS0_8appenderEcE3outEv, symObjAddr: 0x4064, symBinAddr: 0x100007EC4, symSize: 0x8 }
  - { offset: 0x38A5D, size: 0x8, addend: 0x0, symName: __ZN3fmt3v106detail9max_valueIyEET_v, symObjAddr: 0x4050, symBinAddr: 0x100007EB0, symSize: 0x14 }
  - { offset: 0x38ADE, size: 0x8, addend: 0x0, symName: __ZN3fmt3v106detail9max_valueIjEET_v, symObjAddr: 0x403C, symBinAddr: 0x100007E9C, symSize: 0x14 }
  - { offset: 0x38B00, size: 0x8, addend: 0x0, symName: __ZN3fmt3v106detail9dragonbox16get_cached_powerEi, symObjAddr: 0x4020, symBinAddr: 0x100007E80, symSize: 0x1C }
  - { offset: 0x38B2A, size: 0x8, addend: 0x0, symName: __ZN3fmt3v106detail9dragonbox14cache_accessorIdE42compute_round_up_for_shorter_interval_caseERKNS1_16uint128_fallbackEi, symObjAddr: 0x3FD0, symBinAddr: 0x100007E30, symSize: 0x50 }
  - { offset: 0x38B65, size: 0x8, addend: 0x0, symName: __ZN3fmt3v106detail9dragonbox14cache_accessorIdE48compute_right_endpoint_for_shorter_interval_caseERKNS1_16uint128_fallbackEi, symObjAddr: 0x3F6C, symBinAddr: 0x100007DCC, symSize: 0x64 }
  - { offset: 0x38BA0, size: 0x8, addend: 0x0, symName: __ZN3fmt3v106detail9dragonbox14cache_accessorIdE47compute_left_endpoint_for_shorter_interval_caseERKNS1_16uint128_fallbackEi, symObjAddr: 0x3F08, symBinAddr: 0x100007D68, symSize: 0x64 }
  - { offset: 0x38BDB, size: 0x8, addend: 0x0, symName: __ZN3fmt3v106detail9dragonbox14cache_accessorIdE18compute_mul_parityEyRKNS1_16uint128_fallbackEi, symObjAddr: 0x3E10, symBinAddr: 0x100007C70, symSize: 0xF8 }
  - { offset: 0x38C38, size: 0x8, addend: 0x0, symName: __ZN3fmt3v106detail9dragonbox14cache_accessorIdE13compute_deltaERKNS1_16uint128_fallbackEi, symObjAddr: 0x3DDC, symBinAddr: 0x100007C3C, symSize: 0x34 }
  - { offset: 0x38C73, size: 0x8, addend: 0x0, symName: __ZN3fmt3v106detail9dragonbox14cache_accessorIdE11compute_mulEyRKNS1_16uint128_fallbackE, symObjAddr: 0x3D7C, symBinAddr: 0x100007BDC, symSize: 0x60 }
  - { offset: 0x38CBF, size: 0x8, addend: 0x0, symName: __ZN3fmt3v106detail9dragonbox14cache_accessorIdE16get_cached_powerEi, symObjAddr: 0x3B18, symBinAddr: 0x100007978, symSize: 0x264 }
  - { offset: 0x38CF7, size: 0x8, addend: 0x0, symName: __ZZN3fmt3v106detail9dragonbox14cache_accessorIdE16get_cached_powerEiE18pow10_significands, symObjAddr: 0x246F0, symBinAddr: 0x10002BE50, symSize: 0x0 }
  - { offset: 0x38D13, size: 0x8, addend: 0x0, symName: __ZZN3fmt3v106detail9dragonbox14cache_accessorIdE16get_cached_powerEiE14powers_of_5_64, symObjAddr: 0x24870, symBinAddr: 0x10002BFD0, symSize: 0x0 }
  - { offset: 0x38E04, size: 0x8, addend: 0x0, symName: __ZN3fmt3v106detail9dragonbox14cache_accessorIfE42compute_round_up_for_shorter_interval_caseERKyi, symObjAddr: 0x3ACC, symBinAddr: 0x10000792C, symSize: 0x4C }
  - { offset: 0x38E3F, size: 0x8, addend: 0x0, symName: __ZN3fmt3v106detail9dragonbox14cache_accessorIfE48compute_right_endpoint_for_shorter_interval_caseERKyi, symObjAddr: 0x3A70, symBinAddr: 0x1000078D0, symSize: 0x5C }
  - { offset: 0x38E7A, size: 0x8, addend: 0x0, symName: __ZN3fmt3v106detail9dragonbox14cache_accessorIfE47compute_left_endpoint_for_shorter_interval_caseERKyi, symObjAddr: 0x3A14, symBinAddr: 0x100007874, symSize: 0x5C }
  - { offset: 0x38EB5, size: 0x8, addend: 0x0, symName: __ZN3fmt3v106detail20num_significand_bitsIfEEiv, symObjAddr: 0x39E4, symBinAddr: 0x100007844, symSize: 0x30 }
  - { offset: 0x38ED7, size: 0x8, addend: 0x0, symName: __ZN3fmt3v106detail16has_implicit_bitIfEEbv, symObjAddr: 0x39DC, symBinAddr: 0x10000783C, symSize: 0x8 }
  - { offset: 0x38EF9, size: 0x8, addend: 0x0, symName: __ZN3fmt3v106detail9dragonbox14cache_accessorIfE18compute_mul_parityEjRKyi, symObjAddr: 0x3908, symBinAddr: 0x100007768, symSize: 0xD4 }
  - { offset: 0x38F56, size: 0x8, addend: 0x0, symName: __ZN3fmt3v106detail9dragonbox14cache_accessorIfE13compute_deltaERKyi, symObjAddr: 0x38DC, symBinAddr: 0x10000773C, symSize: 0x2C }
  - { offset: 0x38F91, size: 0x8, addend: 0x0, symName: __ZN3fmt3v106detail9dragonbox14cache_accessorIfE11compute_mulEjRKy, symObjAddr: 0x3880, symBinAddr: 0x1000076E0, symSize: 0x5C }
  - { offset: 0x38FDD, size: 0x8, addend: 0x0, symName: __ZN3fmt3v106detail9dragonbox14cache_accessorIfE16get_cached_powerEi, symObjAddr: 0x3824, symBinAddr: 0x100007684, symSize: 0x5C }
  - { offset: 0x39014, size: 0x8, addend: 0x0, symName: __ZZN3fmt3v106detail9dragonbox14cache_accessorIfE16get_cached_powerEiE18pow10_significands, symObjAddr: 0x24480, symBinAddr: 0x10002BBE0, symSize: 0x0 }
  - { offset: 0x39034, size: 0x8, addend: 0x0, symName: __ZN3fmt3v106detail9dragonbox28divide_by_10_to_kappa_plus_1Ey, symObjAddr: 0x37F4, symBinAddr: 0x100007654, symSize: 0x30 }
  - { offset: 0x3905D, size: 0x8, addend: 0x0, symName: __ZN3fmt3v106detail9dragonbox28divide_by_10_to_kappa_plus_1Ej, symObjAddr: 0x37D0, symBinAddr: 0x100007630, symSize: 0x24 }
  - { offset: 0x39086, size: 0x8, addend: 0x0, symName: __ZN3fmt3v106detail9dragonbox37floor_log10_pow2_minus_log10_4_over_3Ei, symObjAddr: 0x376C, symBinAddr: 0x1000075CC, symSize: 0x64 }
  - { offset: 0x390AF, size: 0x8, addend: 0x0, symName: __ZN3fmt3v106detail9dragonbox14umul96_lower64Ejy, symObjAddr: 0x374C, symBinAddr: 0x1000075AC, symSize: 0x20 }
  - { offset: 0x390E8, size: 0x8, addend: 0x0, symName: __ZN3fmt3v106detail9dragonbox16umul192_lower128EyNS1_16uint128_fallbackE, symObjAddr: 0x36C8, symBinAddr: 0x100007528, symSize: 0x84 }
  - { offset: 0x39142, size: 0x8, addend: 0x0, symName: __ZN3fmt3v106detail9dragonbox14umul96_upper64Ejy, symObjAddr: 0x36A0, symBinAddr: 0x100007500, symSize: 0x28 }
  - { offset: 0x3917B, size: 0x8, addend: 0x0, symName: __ZN3fmt3v106detail4rotrEyj, symObjAddr: 0x3674, symBinAddr: 0x1000074D4, symSize: 0x2C }
  - { offset: 0x391B4, size: 0x8, addend: 0x0, symName: __ZN3fmt3v106detail4rotrEjj, symObjAddr: 0x3648, symBinAddr: 0x1000074A8, symSize: 0x2C }
  - { offset: 0x391F1, size: 0x8, addend: 0x0, symName: __ZNK3fmt3v1012format_facetISt6localeE6do_putENS0_8appenderENS0_9loc_valueERKNS0_12format_specsIcEE, symObjAddr: 0x353C, symBinAddr: 0x10000739C, symSize: 0x10C }
  - { offset: 0x39276, size: 0x8, addend: 0x0, symName: __ZN3fmt3v106detail10loc_writerIcED1Ev, symObjAddr: 0x3500, symBinAddr: 0x100007360, symSize: 0x3C }
  - { offset: 0x39298, size: 0x8, addend: 0x0, symName: __ZN3fmt3v106detail9write_locENS0_8appenderENS0_9loc_valueERKNS0_12format_specsIcEENS1_10locale_refE, symObjAddr: 0x33F0, symBinAddr: 0x100007250, symSize: 0x110 }
  - { offset: 0x3933D, size: 0x8, addend: 0x0, symName: __ZN3fmt3v1012format_facetISt6localeED0Ev, symObjAddr: 0x33C8, symBinAddr: 0x100007228, symSize: 0x28 }
  - { offset: 0x39367, size: 0x8, addend: 0x0, symName: __ZN3fmt3v1012format_facetISt6localeED1Ev, symObjAddr: 0x3370, symBinAddr: 0x1000071D0, symSize: 0x58 }
  - { offset: 0x393B0, size: 0x8, addend: 0x0, symName: __ZN3fmt3v108appenderCI1St20back_insert_iteratorINS0_6detail6bufferIcEEEERS5_, symObjAddr: 0x3348, symBinAddr: 0x1000071A8, symSize: 0x28 }
  - { offset: 0x393DE, size: 0x8, addend: 0x0, symName: __ZN3fmt3v106detail18throw_format_errorEPKc, symObjAddr: 0x25EAC, symBinAddr: 0x10002894C, symSize: 0x50 }
  - { offset: 0x39408, size: 0x8, addend: 0x0, symName: __ZN3fmt3v106detail11assert_failEPKciS3_, symObjAddr: 0x3314, symBinAddr: 0x100007174, symSize: 0x34 }
  - { offset: 0x39458, size: 0x8, addend: 0x0, symName: __ZNK3fmt3v106detail6bufferIcE4sizeEv, symObjAddr: 0x330C, symBinAddr: 0x10000716C, symSize: 0x8 }
  - { offset: 0x3947F, size: 0x8, addend: 0x0, symName: __ZN3fmt3v106detail20num_significand_bitsIdEEiv, symObjAddr: 0x32DC, symBinAddr: 0x10000713C, symSize: 0x30 }
  - { offset: 0x394A5, size: 0x8, addend: 0x0, symName: __ZNKSt17integral_constantIbLb0EEcvbEv, symObjAddr: 0x32C8, symBinAddr: 0x100007128, symSize: 0x14 }
  - { offset: 0x394CB, size: 0x8, addend: 0x0, symName: __ZN3fmt3v106detail16has_implicit_bitIdEEbv, symObjAddr: 0x32C0, symBinAddr: 0x100007120, symSize: 0x8 }
  - { offset: 0x394ED, size: 0x8, addend: 0x0, symName: __ZN3fmt3v106detail13format_dragonENS1_8basic_fpIoEEjiRNS1_6bufferIcEERi, symObjAddr: 0x29E8, symBinAddr: 0x100006848, symSize: 0x8D8 }
  - { offset: 0x39766, size: 0x8, addend: 0x0, symName: __ZN3fmt3v106detail6bufferIcEixIiEERcT_, symObjAddr: 0x29DC, symBinAddr: 0x10000683C, symSize: 0xC }
  - { offset: 0x397AA, size: 0x8, addend: 0x0, symName: __ZN3fmt3v106detail6bufferIcE4dataEv, symObjAddr: 0x29D4, symBinAddr: 0x100006834, symSize: 0x8 }
  - { offset: 0x397FD, size: 0x8, addend: 0x0, symName: __ZN3fmt3v106detail6bigintD1Ev, symObjAddr: 0x29B4, symBinAddr: 0x100006814, symSize: 0x20 }
  - { offset: 0x39823, size: 0x8, addend: 0x0, symName: __ZN3fmt3v106detail6bigint13divmod_assignERKS2_, symObjAddr: 0x28B4, symBinAddr: 0x100006714, symSize: 0x100 }
  - { offset: 0x3986F, size: 0x8, addend: 0x0, symName: __ZN3fmt3v106detail6bigint5alignERKS2_, symObjAddr: 0x2798, symBinAddr: 0x1000065F8, symSize: 0x11C }
  - { offset: 0x39901, size: 0x8, addend: 0x0, symName: __ZN3fmt3v106detail6bigint6squareEv, symObjAddr: 0x2484, symBinAddr: 0x1000062E4, symSize: 0x314 }
  - { offset: 0x39A23, size: 0x8, addend: 0x0, symName: __ZN3fmt3v106detail6bigint12assign_pow10Ei, symObjAddr: 0x2390, symBinAddr: 0x1000061F0, symSize: 0xF4 }
  - { offset: 0x39A6B, size: 0x8, addend: 0x0, symName: __ZN3fmt3v106detail11add_compareERKNS1_6bigintES4_S4_, symObjAddr: 0x21E0, symBinAddr: 0x100006040, symSize: 0x1B0 }
  - { offset: 0x39B3E, size: 0x8, addend: 0x0, symName: __ZZN3fmt3v106detail11add_compareERKNS1_6bigintES4_S4_ENKUliiE_clEii, symObjAddr: 0x210C, symBinAddr: 0x100005F6C, symSize: 0x34 }
  - { offset: 0x39C28, size: 0x8, addend: 0x0, symName: __ZZN3fmt3v106detail11add_compareERKNS1_6bigintES4_S4_ENKUliiE0_clEii, symObjAddr: 0x2140, symBinAddr: 0x100005FA0, symSize: 0x34 }
  - { offset: 0x39D34, size: 0x8, addend: 0x0, symName: __ZZN3fmt3v106detail11add_compareERKNS1_6bigintES4_S4_ENKUlS4_iE_clES4_i, symObjAddr: 0x2174, symBinAddr: 0x100005FD4, symSize: 0x6C }
  - { offset: 0x39E15, size: 0x8, addend: 0x0, symName: __ZN3fmt3v106detail7compareERKNS1_6bigintES4_, symObjAddr: 0x1FBC, symBinAddr: 0x100005E1C, symSize: 0x150 }
  - { offset: 0x39EDE, size: 0x8, addend: 0x0, symName: __ZN3fmt3v106detail6bigintlSEi, symObjAddr: 0x1E78, symBinAddr: 0x100005CD8, symSize: 0x144 }
  - { offset: 0x39F83, size: 0x8, addend: 0x0, symName: __ZNK3fmt3v106detail6bigint10num_bigitsEv, symObjAddr: 0x1E4C, symBinAddr: 0x100005CAC, symSize: 0x2C }
  - { offset: 0x39FAD, size: 0x8, addend: 0x0, symName: __ZN3fmt3v106detail6bigint6assignERKS2_, symObjAddr: 0x1DCC, symBinAddr: 0x100005C2C, symSize: 0x80 }
  - { offset: 0x3A00A, size: 0x8, addend: 0x0, symName: __ZNK3fmt3v106detail6bufferIjE4dataEv, symObjAddr: 0x1DC4, symBinAddr: 0x100005C24, symSize: 0x8 }
  - { offset: 0x3A04F, size: 0x8, addend: 0x0, symName: __ZN3fmt3v106detail6bigintC1Ev, symObjAddr: 0x1D5C, symBinAddr: 0x100005BBC, symSize: 0x68 }
  - { offset: 0x3A0FB, size: 0x8, addend: 0x0, symName: __ZN3fmt3v106detail6bigint8multiplyEj, symObjAddr: 0x1C94, symBinAddr: 0x100005AF4, symSize: 0xC8 }
  - { offset: 0x3A1B1, size: 0x8, addend: 0x0, symName: __ZN3fmt3v106detail6bigint16subtract_alignedERKS2_, symObjAddr: 0x1B6C, symBinAddr: 0x1000059CC, symSize: 0x128 }
  - { offset: 0x3A243, size: 0x8, addend: 0x0, symName: __ZNK3fmt3v106detail6bufferIjE4sizeEv, symObjAddr: 0x1B64, symBinAddr: 0x1000059C4, symSize: 0x8 }
  - { offset: 0x3A26E, size: 0x8, addend: 0x0, symName: __ZN3fmt3v106detail6bigint20remove_leading_zerosEv, symObjAddr: 0x1AC8, symBinAddr: 0x100005928, symSize: 0x9C }
  - { offset: 0x3A2A9, size: 0x8, addend: 0x0, symName: __ZN3fmt3v106detail6bigint15subtract_bigitsEijRj, symObjAddr: 0x1A40, symBinAddr: 0x1000058A0, symSize: 0x88 }
  - { offset: 0x3A317, size: 0x8, addend: 0x0, symName: __ZN3fmt3v106detail6bigintixEi, symObjAddr: 0x1A08, symBinAddr: 0x100005868, symSize: 0x38 }
  - { offset: 0x3A352, size: 0x8, addend: 0x0, symName: __ZNK3fmt3v106detail6bigintixEi, symObjAddr: 0x19CC, symBinAddr: 0x10000582C, symSize: 0x3C }
  - { offset: 0x3A389, size: 0x8, addend: 0x0, symName: __ZN3fmt3v106detail8num_bitsIjEEiv, symObjAddr: 0x19C4, symBinAddr: 0x100005824, symSize: 0x8 }
  - { offset: 0x3A3AB, size: 0x8, addend: 0x0, symName: __ZN3fmt3v106detail16adjust_precisionERii, symObjAddr: 0x18FC, symBinAddr: 0x10000575C, symSize: 0xC8 }
  - { offset: 0x3A412, size: 0x8, addend: 0x0, symName: __ZN3fmt3v1012format_errorD0Ev, symObjAddr: 0x18D4, symBinAddr: 0x100005734, symSize: 0x28 }
  - { offset: 0x3A43C, size: 0x8, addend: 0x0, symName: __ZN3fmt3v1012format_errorD1Ev, symObjAddr: 0x18A0, symBinAddr: 0x100005700, symSize: 0x34 }
  - { offset: 0x3A485, size: 0x8, addend: 0x0, symName: __ZN3fmt3v1012format_errorCI1St13runtime_errorEPKc, symObjAddr: 0x1864, symBinAddr: 0x1000056C4, symSize: 0x3C }
  - { offset: 0x3A4B0, size: 0x8, addend: 0x0, symName: __ZN3fmt3v106detail9max_valueIiEET_v, symObjAddr: 0x1850, symBinAddr: 0x1000056B0, symSize: 0x14 }
  - { offset: 0x3A4D2, size: 0x8, addend: 0x0, symName: __ZN3fmt3v106detail20get_significand_sizeERKNS1_14big_decimal_fpE, symObjAddr: 0x1838, symBinAddr: 0x100005698, symSize: 0x18 }
  - { offset: 0x3A500, size: 0x8, addend: 0x0, symName: __ZNK3fmt3v106detail17counting_iteratordeEv, symObjAddr: 0x1820, symBinAddr: 0x100005680, symSize: 0x18 }
  - { offset: 0x3A52A, size: 0x8, addend: 0x0, symName: __ZN3fmt3v106detail17counting_iteratorppEi, symObjAddr: 0x17F0, symBinAddr: 0x100005650, symSize: 0x30 }
  - { offset: 0x3A56E, size: 0x8, addend: 0x0, symName: __ZN3fmt3v106detail17counting_iteratorppEv, symObjAddr: 0x17C8, symBinAddr: 0x100005628, symSize: 0x28 }
  - { offset: 0x3A598, size: 0x8, addend: 0x0, symName: __ZNK3fmt3v106detail17counting_iterator5countEv, symObjAddr: 0x17B0, symBinAddr: 0x100005610, symSize: 0x18 }
  - { offset: 0x3A5DC, size: 0x8, addend: 0x0, symName: __ZN3fmt3v106detail17counting_iteratorC1Ev, symObjAddr: 0x1794, symBinAddr: 0x1000055F4, symSize: 0x1C }
  - { offset: 0x3A5FE, size: 0x8, addend: 0x0, symName: __ZN3fmt3v106detail13prefix_appendERjj, symObjAddr: 0x171C, symBinAddr: 0x10000557C, symSize: 0x78 }
  - { offset: 0x3A639, size: 0x8, addend: 0x0, symName: __ZN3fmt3v106detail11find_escapeEPKcS3_, symObjAddr: 0x1670, symBinAddr: 0x1000054D0, symSize: 0xAC }
  - { offset: 0x3A709, size: 0x8, addend: 0x0, symName: __ZZN3fmt3v106detail11find_escapeEPKcS3_ENKUljNS0_17basic_string_viewIcEEE_clEjS5_, symObjAddr: 0x15E8, symBinAddr: 0x100005448, symSize: 0x70 }
  - { offset: 0x3A77E, size: 0x8, addend: 0x0, symName: __ZNK3fmt3v1017basic_string_viewIcE3endEv, symObjAddr: 0x1660, symBinAddr: 0x1000054C0, symSize: 0x10 }
  - { offset: 0x3A7A9, size: 0x8, addend: 0x0, symName: __ZNK3fmt3v1017basic_string_viewIcE5beginEv, symObjAddr: 0x1658, symBinAddr: 0x1000054B8, symSize: 0x8 }
  - { offset: 0x3A7D0, size: 0x8, addend: 0x0, symName: __ZN3fmt3v106detail12needs_escapeEj, symObjAddr: 0x157C, symBinAddr: 0x1000053DC, symSize: 0x6C }
  - { offset: 0x3A7FA, size: 0x8, addend: 0x0, symName: __ZN3fmt3v106detail9dragonbox16umul192_upper128EyNS1_16uint128_fallbackE, symObjAddr: 0x1528, symBinAddr: 0x100005388, symSize: 0x54 }
  - { offset: 0x3A846, size: 0x8, addend: 0x0, symName: __ZN3fmt3v106detail9dragonbox15umul128_upper64Eyy, symObjAddr: 0x14D0, symBinAddr: 0x100005330, symSize: 0x58 }
  - { offset: 0x3A892, size: 0x8, addend: 0x0, symName: __ZN3fmt3v106detail9dragonbox16floor_log2_pow10Ei, symObjAddr: 0x1478, symBinAddr: 0x1000052D8, symSize: 0x58 }
  - { offset: 0x3A8BC, size: 0x8, addend: 0x0, symName: __ZN3fmt3v106detail9dragonbox16floor_log10_pow2Ei, symObjAddr: 0x1420, symBinAddr: 0x100005280, symSize: 0x58 }
  - { offset: 0x3A8E6, size: 0x8, addend: 0x0, symName: __ZN3fmt3v106detail7umul128Eyy, symObjAddr: 0x13AC, symBinAddr: 0x10000520C, symSize: 0x74 }
  - { offset: 0x3A932, size: 0x8, addend: 0x0, symName: __ZN3fmt3v106detail6equal2EPKcS3_, symObjAddr: 0x1378, symBinAddr: 0x1000051D8, symSize: 0x34 }
  - { offset: 0x3A96D, size: 0x8, addend: 0x0, symName: __ZN3fmt3v106detail12count_digitsEj, symObjAddr: 0x12F8, symBinAddr: 0x100005158, symSize: 0x80 }
  - { offset: 0x3AA0B, size: 0x8, addend: 0x0, symName: __ZZN3fmt3v106detail15do_count_digitsEjE5table, symObjAddr: 0x24350, symBinAddr: 0x10002BAB0, symSize: 0x0 }
  - { offset: 0x3AA39, size: 0x8, addend: 0x0, symName: __ZN3fmt3v106detail12count_digitsEy, symObjAddr: 0x12AC, symBinAddr: 0x10000510C, symSize: 0x4C }
  - { offset: 0x3AA87, size: 0x8, addend: 0x0, symName: __ZN3fmt3v106detail15do_count_digitsEy, symObjAddr: 0x124C, symBinAddr: 0x1000050AC, symSize: 0x60 }
  - { offset: 0x3AABE, size: 0x8, addend: 0x0, symName: __ZZN3fmt3v106detail15do_count_digitsEyE9bsr2log10, symObjAddr: 0x24268, symBinAddr: 0x10002B9C8, symSize: 0x0 }
  - { offset: 0x3AAEB, size: 0x8, addend: 0x0, symName: __ZZN3fmt3v106detail15do_count_digitsEyE20zero_or_powers_of_10, symObjAddr: 0x242A8, symBinAddr: 0x10002BA08, symSize: 0x0 }
  - { offset: 0x3AB1C, size: 0x8, addend: 0x0, symName: __ZN3fmt3v106detail12count_digitsEo, symObjAddr: 0x1230, symBinAddr: 0x100005090, symSize: 0x1C }
  - { offset: 0x3AB46, size: 0x8, addend: 0x0, symName: __ZN3fmt3v106detail7digits2Em, symObjAddr: 0x120C, symBinAddr: 0x10000506C, symSize: 0x24 }
  - { offset: 0x3AB70, size: 0x8, addend: 0x0, symName: __ZN3fmt3v106detail16code_point_indexENS0_17basic_string_viewIcEEm, symObjAddr: 0x1150, symBinAddr: 0x100004FB0, symSize: 0xBC }
  - { offset: 0x3AC06, size: 0x8, addend: 0x0, symName: __ZNK3fmt3v1017basic_string_viewIcE4sizeEv, symObjAddr: 0x1148, symBinAddr: 0x100004FA8, symSize: 0x8 }
  - { offset: 0x3AC31, size: 0x8, addend: 0x0, symName: __ZNK3fmt3v1017basic_string_viewIcE4dataEv, symObjAddr: 0x1140, symBinAddr: 0x100004FA0, symSize: 0x8 }
  - { offset: 0x3AC58, size: 0x8, addend: 0x0, symName: __ZN3fmt3v106detail13compute_widthENS0_17basic_string_viewIcEE, symObjAddr: 0x1114, symBinAddr: 0x100004F74, symSize: 0x2C }
  - { offset: 0x3AD2C, size: 0x8, addend: 0x0, symName: __ZZN3fmt3v106detail13compute_widthENS0_17basic_string_viewIcEEENK17count_code_pointsclEjS3_, symObjAddr: 0xEF8, symBinAddr: 0x100004D58, symSize: 0x21C }
  - { offset: 0x3AD7F, size: 0x8, addend: 0x0, symName: __ZN3fmt3v106detail11utf8_decodeEPKcPjPi, symObjAddr: 0xBE0, symBinAddr: 0x100004A40, symSize: 0x318 }
  - { offset: 0x3AE71, size: 0x8, addend: 0x0, symName: __ZN3fmt3v106detail11countl_zeroEy, symObjAddr: 0xB94, symBinAddr: 0x1000049F4, symSize: 0x4C }
  - { offset: 0x3AEBF, size: 0x8, addend: 0x0, symName: __ZN3fmt3v106detail11countl_zeroEj, symObjAddr: 0xB48, symBinAddr: 0x1000049A8, symSize: 0x4C }
  - { offset: 0x3AF0D, size: 0x8, addend: 0x0, symName: __ZN3fmt3v106detail8num_bitsIoEEiv, symObjAddr: 0xB40, symBinAddr: 0x1000049A0, symSize: 0x8 }
  - { offset: 0x3AF33, size: 0x8, addend: 0x0, symName: __ZN3fmt3v106detail16uint128_fallbackpLEy, symObjAddr: 0xA6C, symBinAddr: 0x1000048CC, symSize: 0xD4 }
  - { offset: 0x3AFA3, size: 0x8, addend: 0x0, symName: __ZNK3fmt3v106detail16uint128_fallback3lowEv, symObjAddr: 0xA54, symBinAddr: 0x1000048B4, symSize: 0x18 }
  - { offset: 0x3AFCD, size: 0x8, addend: 0x0, symName: __ZNK3fmt3v106detail16uint128_fallback4highEv, symObjAddr: 0xA3C, symBinAddr: 0x10000489C, symSize: 0x18 }
  - { offset: 0x3B02D, size: 0x8, addend: 0x0, symName: __ZN3fmt3v106detail16uint128_fallbackC1Eyy, symObjAddr: 0xA08, symBinAddr: 0x100004868, symSize: 0x34 }
  - { offset: 0x3B061, size: 0x8, addend: 0x0, symName: __ZN3fmt3v106detail16abort_fuzzing_ifEb, symObjAddr: 0x9F4, symBinAddr: 0x100004854, symSize: 0x14 }
  - { offset: 0x3B08B, size: 0x8, addend: 0x0, symName: __ZSt7signbitd, symObjAddr: 0x9CC, symBinAddr: 0x10000482C, symSize: 0x28 }
  - { offset: 0x3B0B5, size: 0x8, addend: 0x0, symName: __ZSt5isnane, symObjAddr: 0x99C, symBinAddr: 0x1000047FC, symSize: 0x30 }
  - { offset: 0x3B0DF, size: 0x8, addend: 0x0, symName: __ZSt5isnand, symObjAddr: 0x96C, symBinAddr: 0x1000047CC, symSize: 0x30 }
  - { offset: 0x3B109, size: 0x8, addend: 0x0, symName: __ZSt5isnanf, symObjAddr: 0x93C, symBinAddr: 0x10000479C, symSize: 0x30 }
  - { offset: 0x3B133, size: 0x8, addend: 0x0, symName: __ZSt8isfinitee, symObjAddr: 0x8FC, symBinAddr: 0x10000475C, symSize: 0x40 }
  - { offset: 0x3B15D, size: 0x8, addend: 0x0, symName: __ZSt8isfinited, symObjAddr: 0x8BC, symBinAddr: 0x10000471C, symSize: 0x40 }
  - { offset: 0x3B187, size: 0x8, addend: 0x0, symName: __ZSt8isfinitef, symObjAddr: 0x87C, symBinAddr: 0x1000046DC, symSize: 0x40 }
  - { offset: 0x3B1B1, size: 0x8, addend: 0x0, symName: __ZN3fmt3v106detail11parse_alignEc, symObjAddr: 0x844, symBinAddr: 0x1000046A4, symSize: 0x38 }
  - { offset: 0x3B1DC, size: 0x8, addend: 0x0, symName: __ZN3fmt3v106detail11to_unsignedIiEENSt13make_unsignedIT_E4typeES4_, symObjAddr: 0x81C, symBinAddr: 0x10000467C, symSize: 0x28 }
  - { offset: 0x3B210, size: 0x8, addend: 0x0, symName: __ZN3fmt3v106detail4findILb0EcPKcEEbT1_S5_T0_RS5_, symObjAddr: 0x7CC, symBinAddr: 0x10000462C, symSize: 0x50 }
  - { offset: 0x3B2A7, size: 0x8, addend: 0x0, symName: __ZN3fmt3v108appenderppEi, symObjAddr: 0x7C4, symBinAddr: 0x100004624, symSize: 0x8 }
  - { offset: 0x3B2DA, size: 0x8, addend: 0x0, symName: __ZN3fmt3v106detail13error_handler8on_errorEPKc, symObjAddr: 0x25E9C, symBinAddr: 0x10002893C, symSize: 0x10 }
  - { offset: 0x3B313, size: 0x8, addend: 0x0, symName: __ZN3fmt3v106detail2inENS1_4typeEi, symObjAddr: 0x7B8, symBinAddr: 0x100004618, symSize: 0xC }
  - { offset: 0x3B34E, size: 0x8, addend: 0x0, symName: __ZN3fmt3v106detail18is_arithmetic_typeENS1_4typeE, symObjAddr: 0x7A8, symBinAddr: 0x100004608, symSize: 0x10 }
  - { offset: 0x3B379, size: 0x8, addend: 0x0, symName: __ZN3fmt3v106detail7is_utf8Ev, symObjAddr: 0x780, symBinAddr: 0x1000045E0, symSize: 0x28 }
  - { offset: 0x3B3D2, size: 0x8, addend: 0x0, symName: __ZNSt14numeric_limitsIyE3maxEv, symObjAddr: 0x778, symBinAddr: 0x1000045D8, symSize: 0x8 }
  - { offset: 0x3B3EA, size: 0x8, addend: 0x0, symName: __ZNSt14numeric_limitsIjE3maxEv, symObjAddr: 0x770, symBinAddr: 0x1000045D0, symSize: 0x8 }
  - { offset: 0x3B402, size: 0x8, addend: 0x0, symName: __ZNSt14numeric_limitsIiE3maxEv, symObjAddr: 0x768, symBinAddr: 0x1000045C8, symSize: 0x8 }
  - { offset: 0x3B41A, size: 0x8, addend: 0x0, symName: __ZNSt14numeric_limitsIcE3maxEv, symObjAddr: 0x760, symBinAddr: 0x1000045C0, symSize: 0x8 }
  - { offset: 0x3B450, size: 0x8, addend: 0x0, symName: __ZNSt6locale2idC1Ev, symObjAddr: 0x74C, symBinAddr: 0x1000045AC, symSize: 0x14 }
  - { offset: 0x3B49E, size: 0x8, addend: 0x0, symName: __ZNSt6locale5facetC2Em, symObjAddr: 0x700, symBinAddr: 0x100004560, symSize: 0x4C }
  - { offset: 0x3B4C9, size: 0x8, addend: 0x0, symName: __ZN15fsm_definitions22funcname_from_raw_declERKSt17basic_string_viewIcSt11char_traitsIcEE, symObjAddr: 0x668, symBinAddr: 0x1000044C8, symSize: 0x98 }
  - { offset: 0x3B529, size: 0x8, addend: 0x0, symName: __ZNKSt17basic_string_viewIcSt11char_traitsIcEE5rfindEcm, symObjAddr: 0x598, symBinAddr: 0x1000043F8, symSize: 0xD0 }
  - { offset: 0x3B586, size: 0x8, addend: 0x0, symName: __ZNKSt17basic_string_viewIcSt11char_traitsIcEE4findEcm, symObjAddr: 0x500, symBinAddr: 0x100004360, symSize: 0x98 }
  - { offset: 0x3B60F, size: 0x8, addend: 0x0, symName: __ZN15fsm_definitions18exception_handling4failERKNSt7__cxx1112basic_stringIcSt11char_traitsIcESaIcEEE, symObjAddr: 0x4EC, symBinAddr: 0x10000434C, symSize: 0x14 }
  - { offset: 0x3B638, size: 0x8, addend: 0x0, symName: __ZN15fsm_definitions18exception_handling3nowEb, symObjAddr: 0x4D8, symBinAddr: 0x100004338, symSize: 0x14 }
  - { offset: 0x3B665, size: 0x8, addend: 0x0, symName: __ZNKSt17basic_string_viewIcSt11char_traitsIcEE4dataEv, symObjAddr: 0x4C0, symBinAddr: 0x100004320, symSize: 0x18 }
  - { offset: 0x3B68F, size: 0x8, addend: 0x0, symName: __ZNKSt17integral_constantIbLb1EEcvbEv, symObjAddr: 0x4AC, symBinAddr: 0x10000430C, symSize: 0x14 }
  - { offset: 0x3B6B5, size: 0x8, addend: 0x0, symName: __ZSt10__sv_checkmmPKc, symObjAddr: 0x450, symBinAddr: 0x1000042B0, symSize: 0x5C }
  - { offset: 0x3B6FE, size: 0x8, addend: 0x0, symName: __ZSt17__size_to_integeri, symObjAddr: 0x43C, symBinAddr: 0x10000429C, symSize: 0x14 }
  - { offset: 0x3B728, size: 0x8, addend: 0x0, symName: __ZNSt11char_traitsIcE4findEPKcmRS1_, symObjAddr: 0x3CC, symBinAddr: 0x10000422C, symSize: 0x70 }
  - { offset: 0x3B78E, size: 0x8, addend: 0x0, symName: __ZNSt11char_traitsIcE6lengthEPKc, symObjAddr: 0x390, symBinAddr: 0x1000041F0, symSize: 0x3C }
  - { offset: 0x3B7D2, size: 0x8, addend: 0x0, symName: __ZNSt11char_traitsIcE7compareEPKcS2_m, symObjAddr: 0x2A0, symBinAddr: 0x100004100, symSize: 0xF0 }
  - { offset: 0x3B85C, size: 0x8, addend: 0x0, symName: __ZNSt11char_traitsIcE2ltERKcS2_, symObjAddr: 0x268, symBinAddr: 0x1000040C8, symSize: 0x38 }
  - { offset: 0x3B897, size: 0x8, addend: 0x0, symName: __ZNSt11char_traitsIcE2eqERKcS2_, symObjAddr: 0x238, symBinAddr: 0x100004098, symSize: 0x30 }
  - { offset: 0x3B8D6, size: 0x8, addend: 0x0, symName: __ZNKSt16nested_exception14rethrow_nestedEv, symObjAddr: 0x1E0, symBinAddr: 0x100004040, symSize: 0x58 }
  - { offset: 0x3B91A, size: 0x8, addend: 0x0, symName: __ZNSt16nested_exceptionC2Ev, symObjAddr: 0x1A4, symBinAddr: 0x100004004, symSize: 0x3C }
  - { offset: 0x3B942, size: 0x8, addend: 0x0, symName: __ZNSt15__exception_ptr13exception_ptr4swapERS0_, symObjAddr: 0x164, symBinAddr: 0x100003FC4, symSize: 0x40 }
  - { offset: 0x3B9B2, size: 0x8, addend: 0x0, symName: __ZNSt15__exception_ptr13exception_ptrD1Ev, symObjAddr: 0x134, symBinAddr: 0x100003F94, symSize: 0x30 }
  - { offset: 0x3BA01, size: 0x8, addend: 0x0, symName: __ZNSt15__exception_ptr13exception_ptrC1ERKS0_, symObjAddr: 0xF0, symBinAddr: 0x100003F50, symSize: 0x44 }
  - { offset: 0x3BA30, size: 0x8, addend: 0x0, symName: __ZNKSt15__exception_ptr13exception_ptrcvbEv, symObjAddr: 0xCC, symBinAddr: 0x100003F2C, symSize: 0x24 }
  - { offset: 0x3BA5A, size: 0x8, addend: 0x0, symName: __ZNSt15__exception_ptr13exception_ptraSEOS0_, symObjAddr: 0x90, symBinAddr: 0x100003EF0, symSize: 0x3C }
  - { offset: 0x3BABB, size: 0x8, addend: 0x0, symName: __ZNSt15__exception_ptr13exception_ptrC1EOS0_, symObjAddr: 0x60, symBinAddr: 0x100003EC0, symSize: 0x30 }
  - { offset: 0x3BB09, size: 0x8, addend: 0x0, symName: __ZNSt15__exception_ptr13exception_ptrC1EDn, symObjAddr: 0x40, symBinAddr: 0x100003EA0, symSize: 0x20 }
  - { offset: 0x3BB3F, size: 0x8, addend: 0x0, symName: __ZnwmPv, symObjAddr: 0x28, symBinAddr: 0x100003E88, symSize: 0x18 }
  - { offset: 0x3BB8F, size: 0x8, addend: 0x0, symName: __ZNSt9exceptionC2Ev, symObjAddr: 0x0, symBinAddr: 0x100003E60, symSize: 0x28 }
  - { offset: 0x3BBD5, size: 0x8, addend: 0x0, symName: ___udivti3, symObjAddr: 0x0, symBinAddr: 0x1000282A0, symSize: 0x35C }
  - { offset: 0x3BD26, size: 0x8, addend: 0x0, symName: ___udivti3, symObjAddr: 0x0, symBinAddr: 0x1000282A0, symSize: 0x35C }
  - { offset: 0x3BD62, size: 0x8, addend: 0x0, symName: ___udivti3, symObjAddr: 0x0, symBinAddr: 0x1000282A0, symSize: 0x35C }
  - { offset: 0x3C330, size: 0x8, addend: 0x0, symName: ___umodti3, symObjAddr: 0x0, symBinAddr: 0x100028600, symSize: 0x33C }
  - { offset: 0x3C481, size: 0x8, addend: 0x0, symName: ___umodti3, symObjAddr: 0x0, symBinAddr: 0x100028600, symSize: 0x33C }
  - { offset: 0x3C4CB, size: 0x8, addend: 0x0, symName: ___umodti3, symObjAddr: 0x0, symBinAddr: 0x100028600, symSize: 0x33C }
...
